Symbols:
00100220 t .done
001001e8 t .no_sse
0010007d t .nofpu
00100610 T Alloc
00100ba0 T CIRQErr
00100be0 T CIRQNonErr
00100cd0 T CPage
00104924 r CSWTCH.6
001014d0 T DumbPMMAlloc
00101550 T DumbPMMFree
00101340 T DumbPMMInit
00101330 T EOI
00101230 T FAULT
0010008e T FPUInit
001020f0 D GDT
00100640 T GDTInstall
00100670 T GDTLoad
001001bd T GoToR3
001020e0 D Gp
00104000 D IDT
00100820 T IDTCreateGate
00100860 T IDTLoad
00100250 T IRQ32
00100042 T IRQ36
001000a6 t IRQMainRoutineErr
001000c7 T IRQMainRoutineNonErr
00103000 D Ip
00100290 T KBDMainRoutine
00100d20 T LogF
0010000c r MBV1_end
00100000 r MBV1_header
00101080 T MapAPage
00100510 T OutB
00100320 T OutC
00100460 T OutH
001003c0 T OutI
00100550 T OutL
00100350 T OutS
001012a0 T PICInit
00101300 T PICMask
001012e0 T PICUnmask
001000e8 T Page
00101170 T PagingInit
00101260 T Remap
00100270 T RuchkiNaKolenki
001001fd T SSEInit
00100e80 T Setup
00102070 D TSS
00100230 T TimerInit
001002e0 T UARTInit
00100020 T _start
0010003f t a
001d3000 B bitmap
00100656 t cs_flush
0010008c t d
001001d4 t e
0010006d T fpu_check
00100bd8 t g
001d1000 B gdtable
0010206c d heap_ptr.0
00102000 D heap_start
0010010b T irq0
00100111 T irq1
0010014a T irq10
00100153 T irq11
0010015c T irq12
00100165 T irq13
0010016e t irq14
00100175 T irq15
0010017e T irq16
00100187 T irq17
00100190 T irq18
00100199 T irq19
00100117 T irq2
001001a2 T irq20
001001ab T irq21
0010011d T irq3
00100123 T irq4
00100129 T irq5
0010012f T irq6
00100135 T irq7
0010013b T irq8
00100141 T irq9
001001b4 T irqres
00104800 D irqs
00104886 r no_fpu
00104880 r no_fpu_prefix
0010202d d no_sse
00102027 d no_sse_prefix
00100d0f t p
001d2000 B pd
0010200b d r3
00102004 d r3_prefix
001c0000 t ring3
001001d6 T sse_check
001c1000 b stack_bottom
001d1000 b stack_top
00102068 D ticks
Sections size:
   text	   data	    bss	    dec	    hex	filename
   7293	  10368	1122304	1139965	 1164fd	NVKern
Kernel size: 28K
Readelf:
 ELF Header:
  Magic:   7f 45 4c 46 01 01 01 00 00 00 00 00 00 00 00 00 
  Class:                             ELF32
  Data:                              2's complement, little endian
  Version:                           1 (current)
  OS/ABI:                            UNIX - System V
  ABI Version:                       0
  Type:                              EXEC (Executable file)
  Machine:                           Intel 80386
  Version:                           0x1
  Entry point address:               0x100020
  Start of program headers:          52 (bytes into file)
  Start of section headers:          27392 (bytes into file)
  Flags:                             0x0
  Size of this header:               52 (bytes)
  Size of program headers:           32 (bytes)
  Number of program headers:         7
  Size of section headers:           40 (bytes)
  Number of section headers:         13
  Section header string table index: 12

Section Headers:
  [Nr] Name              Type            Addr     Off    Size   ES Flg Lk Inf Al
  [ 0]                   NULL            00000000 000000 000000 00      0   0  0
  [ 1] .boot             PROGBITS        00100000 001000 00000c 00   A  0   0  4
  [ 2] .text             PROGBITS        00100020 001020 00156c 00  AX  0   0 32
  [ 3] .data             PROGBITS        00102000 003000 002880 00  WA  0   0 4096
  [ 4] .rodata           PROGBITS        00104880 005880 0000b8 00   A  0   0  4
  [ 5] .note.gnu.pr[...] NOTE            00104938 005938 000028 00   A  0   0  4
  [ 6] .rodata.str1.1    PROGBITS        00104960 005960 0003ed 01 AMS  0   0  1
  [ 7] .rodata.str1.4    PROGBITS        00104d50 005d50 000229 01 AMS  0   0  4
  [ 8] .ring3            PROGBITS        001c0000 006000 00000f 00  AX  0   0  1
  [ 9] .bss              NOBITS          001c1000 007000 112000 00  WA  0   0 4096
  [10] .symtab           SYMTAB          00000000 006010 000750 10     11  43  4
  [11] .strtab           STRTAB          00000000 006760 00032b 00      0   0  1
  [12] .shstrtab         STRTAB          00000000 006a8b 000072 00      0   0  1
Key to Flags:
  W (write), A (alloc), X (execute), M (merge), S (strings), I (info),
  L (link order), O (extra OS processing required), G (group), T (TLS),
  C (compressed), x (unknown), o (OS specific), E (exclude),
  D (mbind), p (processor specific)

There are no section groups in this file.

Program Headers:
  Type           Offset   VirtAddr   PhysAddr   FileSiz MemSiz  Flg Align
  LOAD           0x001000 0x00100000 0x00100000 0x0158c 0x0158c R E 0x1000
  LOAD           0x003000 0x00102000 0x00102000 0x02f79 0x02f79 RW  0x1000
  LOAD           0x006000 0x001c0000 0x001c0000 0x0000f 0x0000f R E 0x1000
  LOAD           0x001000 0x001c1000 0x001c1000 0x00000 0x112000 RW  0x1000
  NOTE           0x005938 0x00104938 0x00104938 0x00028 0x00028 R   0x4
  GNU_PROPERTY   0x005938 0x00104938 0x00104938 0x00028 0x00028 R   0x4
  GNU_STACK      0x000000 0x00000000 0x00000000 0x00000 0x00000 RW  0x10

 Section to Segment mapping:
  Segment Sections...
   00     .boot .text 
   01     .data .rodata .note.gnu.property .rodata.str1.1 .rodata.str1.4 
   02     .ring3 
   03     .bss 
   04     .note.gnu.property 
   05     .note.gnu.property 
   06     

There is no dynamic section in this file.

There are no relocations in this file.
No processor specific unwind information to decode

Symbol table '.symtab' contains 117 entries:
   Num:    Value  Size Type    Bind   Vis      Ndx Name
     0: 00000000     0 NOTYPE  LOCAL  DEFAULT  UND 
     1: 00000000     0 FILE    LOCAL  DEFAULT  ABS boot.o
     2: 00100000     0 NOTYPE  LOCAL  DEFAULT    1 MBV1_header
     3: 0010000c     0 NOTYPE  LOCAL  DEFAULT    1 MBV1_end
     4: 001c1000     0 NOTYPE  LOCAL  DEFAULT    9 stack_bottom
     5: 001d1000     0 NOTYPE  LOCAL  DEFAULT    9 stack_top
     6: 0010003f     0 NOTYPE  LOCAL  DEFAULT    2 a
     7: 00000000     0 FILE    LOCAL  DEFAULT  ABS core.o
     8: 0010007d     0 NOTYPE  LOCAL  DEFAULT    2 .nofpu
     9: 00104886     0 NOTYPE  LOCAL  DEFAULT    4 no_fpu
    10: 00104880     0 NOTYPE  LOCAL  DEFAULT    4 no_fpu_prefix
    11: 0010008c     0 NOTYPE  LOCAL  DEFAULT    2 d
    12: 00000000     0 FILE    LOCAL  DEFAULT  ABS lib.o
    13: 001000a6     0 NOTYPE  LOCAL  DEFAULT    2 IRQMainRoutineErr
    14: 0010016e     0 NOTYPE  LOCAL  DEFAULT    2 irq14
    15: 00000000     0 FILE    LOCAL  DEFAULT  ABS sched.o
    16: 001001d4     0 NOTYPE  LOCAL  DEFAULT    2 e
    17: 00102004     0 NOTYPE  LOCAL  DEFAULT    3 r3_prefix
    18: 0010200b     0 NOTYPE  LOCAL  DEFAULT    3 r3
    19: 001c0000     0 NOTYPE  LOCAL  DEFAULT    8 ring3
    20: 00000000     0 FILE    LOCAL  DEFAULT  ABS core.o
    21: 001001e8     0 NOTYPE  LOCAL  DEFAULT    2 .no_sse
    22: 0010202d     0 NOTYPE  LOCAL  DEFAULT    3 no_sse
    23: 00102027     0 NOTYPE  LOCAL  DEFAULT    3 no_sse_prefix
    24: 00100220     0 NOTYPE  LOCAL  DEFAULT    2 .done
    25: 00000000     0 FILE    LOCAL  DEFAULT  ABS timer.c
    26: 00000000     0 FILE    LOCAL  DEFAULT  ABS input.c
    27: 00000000     0 FILE    LOCAL  DEFAULT  ABS serial.c
    28: 00000000     0 FILE    LOCAL  DEFAULT  ABS bump.c
    29: 0010206c     4 OBJECT  LOCAL  DEFAULT    3 heap_ptr.0
    30: 00000000     0 FILE    LOCAL  DEFAULT  ABS gdt.c
    31: 00100656     0 NOTYPE  LOCAL  DEFAULT    2 cs_flush
    32: 00000000     0 FILE    LOCAL  DEFAULT  ABS idt.c
    33: 00000000     0 FILE    LOCAL  DEFAULT  ABS irqs.c
    34: 00100bd8     0 NOTYPE  LOCAL  DEFAULT    2 g
    35: 00100d0f     0 NOTYPE  LOCAL  DEFAULT    2 p
    36: 00000000     0 FILE    LOCAL  DEFAULT  ABS log.c
    37: 00000000     0 FILE    LOCAL  DEFAULT  ABS main.c
    38: 00000000     0 FILE    LOCAL  DEFAULT  ABS paging.c
    39: 00000000     0 FILE    LOCAL  DEFAULT  ABS panic.c
    40: 00000000     0 FILE    LOCAL  DEFAULT  ABS pic.c
    41: 00000000     0 FILE    LOCAL  DEFAULT  ABS pmm.c
    42: 00104924    20 OBJECT  LOCAL  DEFAULT    4 CSWTCH.6
    43: 00101230    38 FUNC    GLOBAL DEFAULT    2 FAULT
    44: 001001fd     0 NOTYPE  GLOBAL DEFAULT    2 SSEInit
    45: 00100cd0    69 FUNC    GLOBAL DEFAULT    2 CPage
    46: 00100320    33 FUNC    GLOBAL DEFAULT    2 OutC
    47: 00100510    63 FUNC    GLOBAL DEFAULT    2 OutB
    48: 0010015c     0 NOTYPE  GLOBAL DEFAULT    2 irq12
    49: 0010014a     0 NOTYPE  GLOBAL DEFAULT    2 irq10
    50: 001d3000 0x100000 OBJECT  GLOBAL DEFAULT    9 bitmap
    51: 00100042     0 NOTYPE  GLOBAL DEFAULT    2 IRQ36
    52: 0010013b     0 NOTYPE  GLOBAL DEFAULT    2 irq8
    53: 001d1000    54 OBJECT  GLOBAL DEFAULT    9 gdtable
    54: 0010006d     0 NOTYPE  GLOBAL DEFAULT    2 fpu_check
    55: 00101080   227 FUNC    GLOBAL DEFAULT    2 MapAPage
    56: 00104800   128 OBJECT  GLOBAL DEFAULT    3 irqs
    57: 00100153     0 NOTYPE  GLOBAL DEFAULT    2 irq11
    58: 00101340   398 FUNC    GLOBAL DEFAULT    2 DumbPMMInit
    59: 001000c7     0 NOTYPE  GLOBAL DEFAULT    2 IRQMainRoutineNonErr
    60: 00102070   106 OBJECT  GLOBAL DEFAULT    3 TSS
    61: 00100129     0 NOTYPE  GLOBAL DEFAULT    2 irq5
    62: 0010008e     0 NOTYPE  GLOBAL DEFAULT    2 FPUInit
    63: 00102000     0 NOTYPE  GLOBAL DEFAULT    3 heap_start
    64: 001020e0     6 OBJECT  GLOBAL DEFAULT    3 Gp
    65: 00104000  2048 OBJECT  GLOBAL DEFAULT    3 IDT
    66: 001012e0    30 FUNC    GLOBAL DEFAULT    2 PICUnmask
    67: 00100290    80 FUNC    GLOBAL DEFAULT    2 KBDMainRoutine
    68: 0010012f     0 NOTYPE  GLOBAL DEFAULT    2 irq6
    69: 00100111     0 NOTYPE  GLOBAL DEFAULT    2 irq1
    70: 001012a0    63 FUNC    GLOBAL DEFAULT    2 PICInit
    71: 00100190     0 NOTYPE  GLOBAL DEFAULT    2 irq18
    72: 00100187     0 NOTYPE  GLOBAL DEFAULT    2 irq17
    73: 00100270    26 FUNC    GLOBAL DEFAULT    2 RuchkiNaKolenki
    74: 0010017e     0 NOTYPE  GLOBAL DEFAULT    2 irq16
    75: 00100020     0 NOTYPE  GLOBAL DEFAULT    2 _start
    76: 00101170   179 FUNC    GLOBAL DEFAULT    2 PagingInit
    77: 001d2000  4096 OBJECT  GLOBAL DEFAULT    9 pd
    78: 001001b4     0 NOTYPE  GLOBAL DEFAULT    2 irqres
    79: 001002e0    57 FUNC    GLOBAL DEFAULT    2 UARTInit
    80: 00100141     0 NOTYPE  GLOBAL DEFAULT    2 irq9
    81: 00100550   178 FUNC    GLOBAL DEFAULT    2 OutL
    82: 00100820    63 FUNC    GLOBAL DEFAULT    2 IDTCreateGate
    83: 00101550    60 FUNC    GLOBAL DEFAULT    2 DumbPMMFree
    84: 00101300    36 FUNC    GLOBAL DEFAULT    2 PICMask
    85: 001000e8     0 NOTYPE  GLOBAL DEFAULT    2 Page
    86: 00100199     0 NOTYPE  GLOBAL DEFAULT    2 irq19
    87: 00100165     0 NOTYPE  GLOBAL DEFAULT    2 irq13
    88: 00100ba0    62 FUNC    GLOBAL DEFAULT    2 CIRQErr
    89: 001001bd     0 NOTYPE  GLOBAL DEFAULT    2 GoToR3
    90: 00100670   413 FUNC    GLOBAL DEFAULT    2 GDTLoad
    91: 00100460   163 FUNC    GLOBAL DEFAULT    2 OutH
    92: 001014d0   127 FUNC    GLOBAL DEFAULT    2 DumbPMMAlloc
    93: 00100117     0 NOTYPE  GLOBAL DEFAULT    2 irq2
    94: 00100350   108 FUNC    GLOBAL DEFAULT    2 OutS
    95: 001001a2     0 NOTYPE  GLOBAL DEFAULT    2 irq20
    96: 00100e80   485 FUNC    GLOBAL DEFAULT    2 Setup
    97: 00100d20   343 FUNC    GLOBAL DEFAULT    2 LogF
    98: 00103000     6 OBJECT  GLOBAL DEFAULT    3 Ip
    99: 00102068     4 OBJECT  GLOBAL DEFAULT    3 ticks
   100: 00100135     0 NOTYPE  GLOBAL DEFAULT    2 irq7
   101: 00100610    18 FUNC    GLOBAL DEFAULT    2 Alloc
   102: 00101260    57 FUNC    GLOBAL DEFAULT    2 Remap
   103: 0010010b     0 NOTYPE  GLOBAL DEFAULT    2 irq0
   104: 001003c0   152 FUNC    GLOBAL DEFAULT    2 OutI
   105: 00100640    41 FUNC    GLOBAL DEFAULT    2 GDTInstall
   106: 00100860   827 FUNC    GLOBAL DEFAULT    2 IDTLoad
   107: 001001d6     0 NOTYPE  GLOBAL DEFAULT    2 sse_check
   108: 001001ab     0 NOTYPE  GLOBAL DEFAULT    2 irq21
   109: 00100be0   228 FUNC    GLOBAL DEFAULT    2 CIRQNonErr
   110: 001020f0    48 OBJECT  GLOBAL DEFAULT    3 GDT
   111: 00100250    21 FUNC    GLOBAL DEFAULT    2 IRQ32
   112: 00100175     0 NOTYPE  GLOBAL DEFAULT    2 irq15
   113: 00101330    16 FUNC    GLOBAL DEFAULT    2 EOI
   114: 00100230    29 FUNC    GLOBAL DEFAULT    2 TimerInit
   115: 00100123     0 NOTYPE  GLOBAL DEFAULT    2 irq4
   116: 0010011d     0 NOTYPE  GLOBAL DEFAULT    2 irq3

No version information found in this file.

There is no GOT section in this file.

Displaying notes found in: .note.gnu.property
  Owner                Data size 	Description
  GNU                  0x00000018	NT_GNU_PROPERTY_TYPE_0
      Properties: x86 feature used: x86, XMM
	x86 ISA used: x86-64-baseline
Object dump(WARN: LARGE OUTPUT):
 
NVKern:     file format elf32-i386


Disassembly of section .text:

00100020 <_start>:
  100020:	fa                   	cli
  100021:	bc 00 10 1d 00       	mov    $0x1d1000,%esp
  100026:	53                   	push   %ebx
  100027:	50                   	push   %eax
  100028:	68 00 00 20 00       	push   $0x200000
  10002d:	9d                   	popf
  10002e:	e8 4d 0e 00 00       	call   100e80 <Setup>
  100033:	66 c7 05 00 80 0b 00 	movw   $0x4f42,0xb8000
  10003a:	42 4f 
  10003c:	6a 00                	push   $0x0
  10003e:	9d                   	popf

0010003f <a>:
  10003f:	f4                   	hlt
  100040:	eb fd                	jmp    10003f <a>

00100042 <IRQ36>:
  100042:	60                   	pusha
  100043:	1e                   	push   %ds
  100044:	06                   	push   %es
  100045:	0f a0                	push   %fs
  100047:	0f a8                	push   %gs
  100049:	b8 10 00 00 00       	mov    $0x10,%eax
  10004e:	8e d8                	mov    %eax,%ds
  100050:	8e c0                	mov    %eax,%es
  100052:	8e e0                	mov    %eax,%fs
  100054:	8e e8                	mov    %eax,%gs
  100056:	e8 35 02 00 00       	call   100290 <KBDMainRoutine>
  10005b:	6a 04                	push   $0x4
  10005d:	e8 ce 12 00 00       	call   101330 <EOI>
  100062:	83 c4 04             	add    $0x4,%esp
  100065:	0f a9                	pop    %gs
  100067:	0f a1                	pop    %fs
  100069:	07                   	pop    %es
  10006a:	1f                   	pop    %ds
  10006b:	61                   	popa
  10006c:	cf                   	iret

0010006d <fpu_check>:
  10006d:	b8 01 00 00 00       	mov    $0x1,%eax
  100072:	0f a2                	cpuid
  100074:	f7 c2 01 00 00 00    	test   $0x1,%edx
  10007a:	74 01                	je     10007d <.nofpu>
  10007c:	c3                   	ret

0010007d <.nofpu>:
  10007d:	68 86 48 10 00       	push   $0x104886
  100082:	68 80 48 10 00       	push   $0x104880
  100087:	e8 94 0c 00 00       	call   100d20 <LogF>

0010008c <d>:
  10008c:	eb fe                	jmp    10008c <d>

0010008e <FPUInit>:
  10008e:	60                   	pusha
  10008f:	e8 d9 ff ff ff       	call   10006d <fpu_check>
  100094:	0f 20 c0             	mov    %cr0,%eax
  100097:	83 e0 fb             	and    $0xfffffffb,%eax
  10009a:	83 c8 22             	or     $0x22,%eax
  10009d:	0f 22 c0             	mov    %eax,%cr0
  1000a0:	0f 06                	clts
  1000a2:	db e3                	fninit
  1000a4:	61                   	popa
  1000a5:	c3                   	ret

001000a6 <IRQMainRoutineErr>:
  1000a6:	6a 00                	push   $0x0
  1000a8:	1e                   	push   %ds
  1000a9:	60                   	pusha
  1000aa:	66 b8 10 00          	mov    $0x10,%ax
  1000ae:	8e d8                	mov    %eax,%ds
  1000b0:	8e c0                	mov    %eax,%es
  1000b2:	8e d0                	mov    %eax,%ss
  1000b4:	8e e0                	mov    %eax,%fs
  1000b6:	8e e8                	mov    %eax,%gs
  1000b8:	54                   	push   %esp
  1000b9:	e8 e2 0a 00 00       	call   100ba0 <CIRQErr>
  1000be:	83 c4 04             	add    $0x4,%esp
  1000c1:	61                   	popa
  1000c2:	1f                   	pop    %ds
  1000c3:	83 c4 08             	add    $0x8,%esp
  1000c6:	cf                   	iret

001000c7 <IRQMainRoutineNonErr>:
  1000c7:	6a 00                	push   $0x0
  1000c9:	1e                   	push   %ds
  1000ca:	60                   	pusha
  1000cb:	66 b8 10 00          	mov    $0x10,%ax
  1000cf:	8e d8                	mov    %eax,%ds
  1000d1:	8e c0                	mov    %eax,%es
  1000d3:	8e d0                	mov    %eax,%ss
  1000d5:	8e e0                	mov    %eax,%fs
  1000d7:	8e e8                	mov    %eax,%gs
  1000d9:	54                   	push   %esp
  1000da:	e8 01 0b 00 00       	call   100be0 <CIRQNonErr>
  1000df:	83 c4 04             	add    $0x4,%esp
  1000e2:	61                   	popa
  1000e3:	1f                   	pop    %ds
  1000e4:	83 c4 08             	add    $0x8,%esp
  1000e7:	cf                   	iret

001000e8 <Page>:
  1000e8:	0f 20 d2             	mov    %cr2,%edx
  1000eb:	52                   	push   %edx
  1000ec:	1e                   	push   %ds
  1000ed:	60                   	pusha
  1000ee:	66 b8 10 00          	mov    $0x10,%ax
  1000f2:	8e d8                	mov    %eax,%ds
  1000f4:	8e c0                	mov    %eax,%es
  1000f6:	8e d0                	mov    %eax,%ss
  1000f8:	8e e0                	mov    %eax,%fs
  1000fa:	8e e8                	mov    %eax,%gs
  1000fc:	54                   	push   %esp
  1000fd:	e8 ce 0b 00 00       	call   100cd0 <CPage>
  100102:	83 c4 04             	add    $0x4,%esp
  100105:	61                   	popa
  100106:	1f                   	pop    %ds
  100107:	83 c4 08             	add    $0x8,%esp
  10010a:	cf                   	iret

0010010b <irq0>:
  10010b:	6a 00                	push   $0x0
  10010d:	6a 00                	push   $0x0
  10010f:	eb b6                	jmp    1000c7 <IRQMainRoutineNonErr>

00100111 <irq1>:
  100111:	6a 01                	push   $0x1
  100113:	6a 00                	push   $0x0
  100115:	eb b0                	jmp    1000c7 <IRQMainRoutineNonErr>

00100117 <irq2>:
  100117:	6a 02                	push   $0x2
  100119:	6a 00                	push   $0x0
  10011b:	eb aa                	jmp    1000c7 <IRQMainRoutineNonErr>

0010011d <irq3>:
  10011d:	6a 03                	push   $0x3
  10011f:	6a 00                	push   $0x0
  100121:	eb a4                	jmp    1000c7 <IRQMainRoutineNonErr>

00100123 <irq4>:
  100123:	6a 04                	push   $0x4
  100125:	6a 00                	push   $0x0
  100127:	eb 9e                	jmp    1000c7 <IRQMainRoutineNonErr>

00100129 <irq5>:
  100129:	6a 05                	push   $0x5
  10012b:	6a 00                	push   $0x0
  10012d:	eb 98                	jmp    1000c7 <IRQMainRoutineNonErr>

0010012f <irq6>:
  10012f:	6a 06                	push   $0x6
  100131:	6a 00                	push   $0x0
  100133:	eb 92                	jmp    1000c7 <IRQMainRoutineNonErr>

00100135 <irq7>:
  100135:	6a 07                	push   $0x7
  100137:	6a 00                	push   $0x0
  100139:	eb 8c                	jmp    1000c7 <IRQMainRoutineNonErr>

0010013b <irq8>:
  10013b:	6a 08                	push   $0x8
  10013d:	6a 00                	push   $0x0
  10013f:	eb 86                	jmp    1000c7 <IRQMainRoutineNonErr>

00100141 <irq9>:
  100141:	6a 09                	push   $0x9
  100143:	6a 00                	push   $0x0
  100145:	e9 5c ff ff ff       	jmp    1000a6 <IRQMainRoutineErr>

0010014a <irq10>:
  10014a:	6a 0a                	push   $0xa
  10014c:	6a 00                	push   $0x0
  10014e:	e9 53 ff ff ff       	jmp    1000a6 <IRQMainRoutineErr>

00100153 <irq11>:
  100153:	6a 0b                	push   $0xb
  100155:	6a 00                	push   $0x0
  100157:	e9 4a ff ff ff       	jmp    1000a6 <IRQMainRoutineErr>

0010015c <irq12>:
  10015c:	6a 0c                	push   $0xc
  10015e:	6a 00                	push   $0x0
  100160:	e9 41 ff ff ff       	jmp    1000a6 <IRQMainRoutineErr>

00100165 <irq13>:
  100165:	6a 0d                	push   $0xd
  100167:	6a 00                	push   $0x0
  100169:	e9 38 ff ff ff       	jmp    1000a6 <IRQMainRoutineErr>

0010016e <irq14>:
  10016e:	6a 0e                	push   $0xe
  100170:	e9 73 ff ff ff       	jmp    1000e8 <Page>

00100175 <irq15>:
  100175:	6a 0f                	push   $0xf
  100177:	6a 00                	push   $0x0
  100179:	e9 28 ff ff ff       	jmp    1000a6 <IRQMainRoutineErr>

0010017e <irq16>:
  10017e:	6a 10                	push   $0x10
  100180:	6a 00                	push   $0x0
  100182:	e9 40 ff ff ff       	jmp    1000c7 <IRQMainRoutineNonErr>

00100187 <irq17>:
  100187:	6a 11                	push   $0x11
  100189:	6a 00                	push   $0x0
  10018b:	e9 37 ff ff ff       	jmp    1000c7 <IRQMainRoutineNonErr>

00100190 <irq18>:
  100190:	6a 12                	push   $0x12
  100192:	6a 00                	push   $0x0
  100194:	e9 2e ff ff ff       	jmp    1000c7 <IRQMainRoutineNonErr>

00100199 <irq19>:
  100199:	6a 13                	push   $0x13
  10019b:	6a 00                	push   $0x0
  10019d:	e9 25 ff ff ff       	jmp    1000c7 <IRQMainRoutineNonErr>

001001a2 <irq20>:
  1001a2:	6a 14                	push   $0x14
  1001a4:	6a 00                	push   $0x0
  1001a6:	e9 1c ff ff ff       	jmp    1000c7 <IRQMainRoutineNonErr>

001001ab <irq21>:
  1001ab:	6a 15                	push   $0x15
  1001ad:	6a 00                	push   $0x0
  1001af:	e9 13 ff ff ff       	jmp    1000c7 <IRQMainRoutineNonErr>

001001b4 <irqres>:
  1001b4:	6a 16                	push   $0x16
  1001b6:	6a 00                	push   $0x0
  1001b8:	e9 0a ff ff ff       	jmp    1000c7 <IRQMainRoutineNonErr>

001001bd <GoToR3>:
  1001bd:	83 e4 f0             	and    $0xfffffff0,%esp
  1001c0:	6a 23                	push   $0x23
  1001c2:	68 00 00 a0 3f       	push   $0x3fa00000
  1001c7:	68 06 02 20 00       	push   $0x200206
  1001cc:	6a 1b                	push   $0x1b
  1001ce:	68 00 00 1c 00       	push   $0x1c0000
  1001d3:	cf                   	iret

001001d4 <e>:
  1001d4:	eb fe                	jmp    1001d4 <e>

001001d6 <sse_check>:
  1001d6:	b8 01 00 00 00       	mov    $0x1,%eax
  1001db:	0f a2                	cpuid
  1001dd:	f7 c2 00 00 00 02    	test   $0x2000000,%edx
  1001e3:	74 03                	je     1001e8 <.no_sse>
  1001e5:	31 c0                	xor    %eax,%eax
  1001e7:	c3                   	ret

001001e8 <.no_sse>:
  1001e8:	68 2d 20 10 00       	push   $0x10202d
  1001ed:	68 27 20 10 00       	push   $0x102027
  1001f2:	e8 29 0b 00 00       	call   100d20 <LogF>
  1001f7:	b8 ff ff ff ff       	mov    $0xffffffff,%eax
  1001fc:	c3                   	ret

001001fd <SSEInit>:
  1001fd:	60                   	pusha
  1001fe:	e8 d3 ff ff ff       	call   1001d6 <sse_check>
  100203:	83 f8 ff             	cmp    $0xffffffff,%eax
  100206:	74 18                	je     100220 <.done>
  100208:	0f 20 e0             	mov    %cr4,%eax
  10020b:	0d 00 06 00 00       	or     $0x600,%eax
  100210:	0f 22 e0             	mov    %eax,%cr4
  100213:	68 80 1f 00 00       	push   $0x1f80
  100218:	0f ae 14 24          	ldmxcsr (%esp)
  10021c:	83 c4 04             	add    $0x4,%esp
  10021f:	61                   	popa

00100220 <.done>:
  100220:	c3                   	ret
  100221:	66 90                	xchg   %ax,%ax
  100223:	66 90                	xchg   %ax,%ax
  100225:	66 90                	xchg   %ax,%ax
  100227:	66 90                	xchg   %ax,%ax
  100229:	66 90                	xchg   %ax,%ax
  10022b:	66 90                	xchg   %ax,%ax
  10022d:	66 90                	xchg   %ax,%ax
  10022f:	90                   	nop

00100230 <TimerInit>:
  100230:	31 d2                	xor    %edx,%edx
  100232:	b8 dc 34 12 00       	mov    $0x1234dc,%eax
  100237:	f7 74 24 04          	divl   0x4(%esp)
  10023b:	89 c1                	mov    %eax,%ecx
  10023d:	b0 36                	mov    $0x36,%al
  10023f:	e6 43                	out    %al,$0x43
  100241:	88 c8                	mov    %cl,%al
  100243:	e6 40                	out    %al,$0x40
  100245:	89 c8                	mov    %ecx,%eax
  100247:	c1 e8 08             	shr    $0x8,%eax
  10024a:	e6 40                	out    %al,$0x40
  10024c:	c3                   	ret
  10024d:	8d 76 00             	lea    0x0(%esi),%esi

00100250 <IRQ32>:
  100250:	60                   	pusha
  100251:	ff 05 68 20 10 00    	incl   0x102068
  100257:	6a 00                	push   $0x0
  100259:	e8 d2 10 00 00       	call   101330 <EOI>
  10025e:	83 c4 04             	add    $0x4,%esp
  100261:	61                   	popa
  100262:	cf                   	iret
  100263:	0f 0b                	ud2
  100265:	8d 76 00             	lea    0x0(%esi),%esi
  100268:	2e 8d b4 26 00 00 00 	lea    %cs:0x0(%esi,%eiz,1),%esi
  10026f:	00 

00100270 <RuchkiNaKolenki>:
  100270:	8b 15 68 20 10 00    	mov    0x102068,%edx
  100276:	8b 44 24 04          	mov    0x4(%esp),%eax
  10027a:	01 d0                	add    %edx,%eax
  10027c:	39 c2                	cmp    %eax,%edx
  10027e:	73 09                	jae    100289 <RuchkiNaKolenki+0x19>
  100280:	f4                   	hlt
  100281:	39 05 68 20 10 00    	cmp    %eax,0x102068
  100287:	72 f7                	jb     100280 <RuchkiNaKolenki+0x10>
  100289:	c3                   	ret
  10028a:	66 90                	xchg   %ax,%ax
  10028c:	66 90                	xchg   %ax,%ax
  10028e:	66 90                	xchg   %ax,%ax

00100290 <KBDMainRoutine>:
  100290:	83 ec 1c             	sub    $0x1c,%esp
  100293:	ba f8 03 00 00       	mov    $0x3f8,%edx
  100298:	ec                   	in     (%dx),%al
  100299:	3c 0d                	cmp    $0xd,%al
  10029b:	74 33                	je     1002d0 <KBDMainRoutine+0x40>
  10029d:	3c 7f                	cmp    $0x7f,%al
  10029f:	74 17                	je     1002b8 <KBDMainRoutine+0x28>
  1002a1:	3c 0a                	cmp    $0xa,%al
  1002a3:	74 2b                	je     1002d0 <KBDMainRoutine+0x40>
  1002a5:	0f be c0             	movsbl %al,%eax
  1002a8:	89 04 24             	mov    %eax,(%esp)
  1002ab:	e8 70 00 00 00       	call   100320 <OutC>
  1002b0:	83 c4 1c             	add    $0x1c,%esp
  1002b3:	c3                   	ret
  1002b4:	8d 74 26 00          	lea    0x0(%esi,%eiz,1),%esi
  1002b8:	c7 04 24 60 49 10 00 	movl   $0x104960,(%esp)
  1002bf:	e8 8c 00 00 00       	call   100350 <OutS>
  1002c4:	83 c4 1c             	add    $0x1c,%esp
  1002c7:	c3                   	ret
  1002c8:	2e 8d b4 26 00 00 00 	lea    %cs:0x0(%esi,%eiz,1),%esi
  1002cf:	00 
  1002d0:	c7 04 24 0a 00 00 00 	movl   $0xa,(%esp)
  1002d7:	e8 44 00 00 00       	call   100320 <OutC>
  1002dc:	83 c4 1c             	add    $0x1c,%esp
  1002df:	c3                   	ret

001002e0 <UARTInit>:
  1002e0:	31 c0                	xor    %eax,%eax
  1002e2:	ba f9 03 00 00       	mov    $0x3f9,%edx
  1002e7:	ee                   	out    %al,(%dx)
  1002e8:	b0 80                	mov    $0x80,%al
  1002ea:	ba fb 03 00 00       	mov    $0x3fb,%edx
  1002ef:	ee                   	out    %al,(%dx)
  1002f0:	ba f8 03 00 00       	mov    $0x3f8,%edx
  1002f5:	b0 01                	mov    $0x1,%al
  1002f7:	ee                   	out    %al,(%dx)
  1002f8:	31 c0                	xor    %eax,%eax
  1002fa:	ba f9 03 00 00       	mov    $0x3f9,%edx
  1002ff:	ee                   	out    %al,(%dx)
  100300:	b0 03                	mov    $0x3,%al
  100302:	ba fb 03 00 00       	mov    $0x3fb,%edx
  100307:	ee                   	out    %al,(%dx)
  100308:	b0 c7                	mov    $0xc7,%al
  10030a:	ba fa 03 00 00       	mov    $0x3fa,%edx
  10030f:	ee                   	out    %al,(%dx)
  100310:	b0 01                	mov    $0x1,%al
  100312:	ba f9 03 00 00       	mov    $0x3f9,%edx
  100317:	ee                   	out    %al,(%dx)
  100318:	c3                   	ret
  100319:	8d b4 26 00 00 00 00 	lea    0x0(%esi,%eiz,1),%esi

00100320 <OutC>:
  100320:	ba fd 03 00 00       	mov    $0x3fd,%edx
  100325:	8d 76 00             	lea    0x0(%esi),%esi
  100328:	2e 8d b4 26 00 00 00 	lea    %cs:0x0(%esi,%eiz,1),%esi
  10032f:	00 
  100330:	ec                   	in     (%dx),%al
  100331:	a8 20                	test   $0x20,%al
  100333:	74 fb                	je     100330 <OutC+0x10>
  100335:	0f b6 44 24 04       	movzbl 0x4(%esp),%eax
  10033a:	ba f8 03 00 00       	mov    $0x3f8,%edx
  10033f:	ee                   	out    %al,(%dx)
  100340:	c3                   	ret
  100341:	8d b4 26 00 00 00 00 	lea    0x0(%esi,%eiz,1),%esi
  100348:	2e 8d b4 26 00 00 00 	lea    %cs:0x0(%esi,%eiz,1),%esi
  10034f:	00 

00100350 <OutS>:
  100350:	83 ec 0c             	sub    $0xc,%esp
  100353:	89 74 24 04          	mov    %esi,0x4(%esp)
  100357:	8b 74 24 10          	mov    0x10(%esp),%esi
  10035b:	0f b6 0e             	movzbl (%esi),%ecx
  10035e:	84 c9                	test   %cl,%cl
  100360:	74 39                	je     10039b <OutS+0x4b>
  100362:	8d b6 00 00 00 00    	lea    0x0(%esi),%esi
  100368:	2e 8d b4 26 00 00 00 	lea    %cs:0x0(%esi,%eiz,1),%esi
  10036f:	00 
  100370:	80 f9 0a             	cmp    $0xa,%cl
  100373:	74 33                	je     1003a8 <OutS+0x58>
  100375:	8d 76 00             	lea    0x0(%esi),%esi
  100378:	2e 8d b4 26 00 00 00 	lea    %cs:0x0(%esi,%eiz,1),%esi
  10037f:	00 
  100380:	ba fd 03 00 00       	mov    $0x3fd,%edx
  100385:	ec                   	in     (%dx),%al
  100386:	a8 20                	test   $0x20,%al
  100388:	74 f6                	je     100380 <OutS+0x30>
  10038a:	88 c8                	mov    %cl,%al
  10038c:	ba f8 03 00 00       	mov    $0x3f8,%edx
  100391:	ee                   	out    %al,(%dx)
  100392:	0f b6 4e 01          	movzbl 0x1(%esi),%ecx
  100396:	46                   	inc    %esi
  100397:	84 c9                	test   %cl,%cl
  100399:	75 d5                	jne    100370 <OutS+0x20>
  10039b:	8b 74 24 04          	mov    0x4(%esp),%esi
  10039f:	83 c4 0c             	add    $0xc,%esp
  1003a2:	c3                   	ret
  1003a3:	2e 8d 74 26 00       	lea    %cs:0x0(%esi,%eiz,1),%esi
  1003a8:	ba fd 03 00 00       	mov    $0x3fd,%edx
  1003ad:	ec                   	in     (%dx),%al
  1003ae:	a8 20                	test   $0x20,%al
  1003b0:	74 f6                	je     1003a8 <OutS+0x58>
  1003b2:	b0 0d                	mov    $0xd,%al
  1003b4:	ba f8 03 00 00       	mov    $0x3f8,%edx
  1003b9:	ee                   	out    %al,(%dx)
  1003ba:	eb c4                	jmp    100380 <OutS+0x30>
  1003bc:	8d 74 26 00          	lea    0x0(%esi,%eiz,1),%esi

001003c0 <OutI>:
  1003c0:	55                   	push   %ebp
  1003c1:	31 c9                	xor    %ecx,%ecx
  1003c3:	57                   	push   %edi
  1003c4:	bf cd cc cc cc       	mov    $0xcccccccd,%edi
  1003c9:	56                   	push   %esi
  1003ca:	53                   	push   %ebx
  1003cb:	83 ec 10             	sub    $0x10,%esp
  1003ce:	8b 5c 24 24          	mov    0x24(%esp),%ebx
  1003d2:	8d b6 00 00 00 00    	lea    0x0(%esi),%esi
  1003d8:	2e 8d b4 26 00 00 00 	lea    %cs:0x0(%esi,%eiz,1),%esi
  1003df:	00 
  1003e0:	89 d8                	mov    %ebx,%eax
  1003e2:	89 ce                	mov    %ecx,%esi
  1003e4:	f7 e7                	mul    %edi
  1003e6:	89 d8                	mov    %ebx,%eax
  1003e8:	8d 49 01             	lea    0x1(%ecx),%ecx
  1003eb:	0f b7 c9             	movzwl %cx,%ecx
  1003ee:	c1 ea 03             	shr    $0x3,%edx
  1003f1:	8d 2c 92             	lea    (%edx,%edx,4),%ebp
  1003f4:	01 ed                	add    %ebp,%ebp
  1003f6:	29 e8                	sub    %ebp,%eax
  1003f8:	04 30                	add    $0x30,%al
  1003fa:	83 fb 09             	cmp    $0x9,%ebx
  1003fd:	88 44 34 04          	mov    %al,0x4(%esp,%esi,1)
  100401:	89 d3                	mov    %edx,%ebx
  100403:	77 db                	ja     1003e0 <OutI+0x20>
  100405:	85 c9                	test   %ecx,%ecx
  100407:	74 47                	je     100450 <OutI+0x90>
  100409:	8d 6c 24 04          	lea    0x4(%esp),%ebp
  10040d:	8d 74 34 04          	lea    0x4(%esp,%esi,1),%esi
  100411:	8d b4 26 00 00 00 00 	lea    0x0(%esi,%eiz,1),%esi
  100418:	2e 8d b4 26 00 00 00 	lea    %cs:0x0(%esi,%eiz,1),%esi
  10041f:	00 
  100420:	0f b6 0e             	movzbl (%esi),%ecx
  100423:	2e 8d 74 26 00       	lea    %cs:0x0(%esi,%eiz,1),%esi
  100428:	2e 8d b4 26 00 00 00 	lea    %cs:0x0(%esi,%eiz,1),%esi
  10042f:	00 
  100430:	ba fd 03 00 00       	mov    $0x3fd,%edx
  100435:	ec                   	in     (%dx),%al
  100436:	a8 20                	test   $0x20,%al
  100438:	74 f6                	je     100430 <OutI+0x70>
  10043a:	88 c8                	mov    %cl,%al
  10043c:	ba f8 03 00 00       	mov    $0x3f8,%edx
  100441:	ee                   	out    %al,(%dx)
  100442:	39 f5                	cmp    %esi,%ebp
  100444:	74 0a                	je     100450 <OutI+0x90>
  100446:	4e                   	dec    %esi
  100447:	eb d7                	jmp    100420 <OutI+0x60>
  100449:	8d b4 26 00 00 00 00 	lea    0x0(%esi,%eiz,1),%esi
  100450:	83 c4 10             	add    $0x10,%esp
  100453:	5b                   	pop    %ebx
  100454:	5e                   	pop    %esi
  100455:	5f                   	pop    %edi
  100456:	5d                   	pop    %ebp
  100457:	c3                   	ret
  100458:	2e 8d b4 26 00 00 00 	lea    %cs:0x0(%esi,%eiz,1),%esi
  10045f:	00 

00100460 <OutH>:
  100460:	55                   	push   %ebp
  100461:	b1 24                	mov    $0x24,%cl
  100463:	57                   	push   %edi
  100464:	bd f8 03 00 00       	mov    $0x3f8,%ebp
  100469:	56                   	push   %esi
  10046a:	be 64 49 10 00       	mov    $0x104964,%esi
  10046f:	53                   	push   %ebx
  100470:	bb fd 03 00 00       	mov    $0x3fd,%ebx
  100475:	83 ec 04             	sub    $0x4,%esp
  100478:	8b 7c 24 18          	mov    0x18(%esp),%edi
  10047c:	8d 74 26 00          	lea    0x0(%esi,%eiz,1),%esi
  100480:	89 da                	mov    %ebx,%edx
  100482:	ec                   	in     (%dx),%al
  100483:	a8 20                	test   $0x20,%al
  100485:	74 f9                	je     100480 <OutH+0x20>
  100487:	88 c8                	mov    %cl,%al
  100489:	89 ea                	mov    %ebp,%edx
  10048b:	ee                   	out    %al,(%dx)
  10048c:	46                   	inc    %esi
  10048d:	81 fe 67 49 10 00    	cmp    $0x104967,%esi
  100493:	74 1b                	je     1004b0 <OutH+0x50>
  100495:	0f b6 0e             	movzbl (%esi),%ecx
  100498:	80 f9 0a             	cmp    $0xa,%cl
  10049b:	75 e3                	jne    100480 <OutH+0x20>
  10049d:	8d 76 00             	lea    0x0(%esi),%esi
  1004a0:	89 da                	mov    %ebx,%edx
  1004a2:	ec                   	in     (%dx),%al
  1004a3:	a8 20                	test   $0x20,%al
  1004a5:	74 f9                	je     1004a0 <OutH+0x40>
  1004a7:	b0 0d                	mov    $0xd,%al
  1004a9:	89 ea                	mov    %ebp,%edx
  1004ab:	ee                   	out    %al,(%dx)
  1004ac:	eb d2                	jmp    100480 <OutH+0x20>
  1004ae:	66 90                	xchg   %ax,%ax
  1004b0:	b9 1c 00 00 00       	mov    $0x1c,%ecx
  1004b5:	8d 76 00             	lea    0x0(%esi),%esi
  1004b8:	2e 8d b4 26 00 00 00 	lea    %cs:0x0(%esi,%eiz,1),%esi
  1004bf:	00 
  1004c0:	89 f8                	mov    %edi,%eax
  1004c2:	d3 e8                	shr    %cl,%eax
  1004c4:	83 e0 0f             	and    $0xf,%eax
  1004c7:	0f b6 80 68 49 10 00 	movzbl 0x104968(%eax),%eax
  1004ce:	88 44 24 03          	mov    %al,0x3(%esp)
  1004d2:	8d b6 00 00 00 00    	lea    0x0(%esi),%esi
  1004d8:	2e 8d b4 26 00 00 00 	lea    %cs:0x0(%esi,%eiz,1),%esi
  1004df:	00 
  1004e0:	ba fd 03 00 00       	mov    $0x3fd,%edx
  1004e5:	ec                   	in     (%dx),%al
  1004e6:	a8 20                	test   $0x20,%al
  1004e8:	74 f6                	je     1004e0 <OutH+0x80>
  1004ea:	0f b6 44 24 03       	movzbl 0x3(%esp),%eax
  1004ef:	ba f8 03 00 00       	mov    $0x3f8,%edx
  1004f4:	ee                   	out    %al,(%dx)
  1004f5:	83 e9 04             	sub    $0x4,%ecx
  1004f8:	83 f9 fc             	cmp    $0xfffffffc,%ecx
  1004fb:	75 c3                	jne    1004c0 <OutH+0x60>
  1004fd:	58                   	pop    %eax
  1004fe:	5b                   	pop    %ebx
  1004ff:	5e                   	pop    %esi
  100500:	5f                   	pop    %edi
  100501:	5d                   	pop    %ebp
  100502:	c3                   	ret
  100503:	2e 8d 74 26 00       	lea    %cs:0x0(%esi,%eiz,1),%esi
  100508:	2e 8d b4 26 00 00 00 	lea    %cs:0x0(%esi,%eiz,1),%esi
  10050f:	00 

00100510 <OutB>:
  100510:	83 ec 10             	sub    $0x10,%esp
  100513:	b9 20 00 00 00       	mov    $0x20,%ecx
  100518:	89 7c 24 0c          	mov    %edi,0xc(%esp)
  10051c:	8b 7c 24 14          	mov    0x14(%esp),%edi
  100520:	89 f8                	mov    %edi,%eax
  100522:	d3 e8                	shr    %cl,%eax
  100524:	83 e0 01             	and    $0x1,%eax
  100527:	83 c0 30             	add    $0x30,%eax
  10052a:	89 04 24             	mov    %eax,(%esp)
  10052d:	8d 76 00             	lea    0x0(%esi),%esi
  100530:	ba fd 03 00 00       	mov    $0x3fd,%edx
  100535:	ec                   	in     (%dx),%al
  100536:	a8 20                	test   $0x20,%al
  100538:	74 f6                	je     100530 <OutB+0x20>
  10053a:	0f b6 04 24          	movzbl (%esp),%eax
  10053e:	ba f8 03 00 00       	mov    $0x3f8,%edx
  100543:	ee                   	out    %al,(%dx)
  100544:	49                   	dec    %ecx
  100545:	75 d9                	jne    100520 <OutB+0x10>
  100547:	8b 7c 24 0c          	mov    0xc(%esp),%edi
  10054b:	83 c4 10             	add    $0x10,%esp
  10054e:	c3                   	ret
  10054f:	90                   	nop

00100550 <OutL>:
  100550:	55                   	push   %ebp
  100551:	b1 24                	mov    $0x24,%cl
  100553:	57                   	push   %edi
  100554:	bd 64 49 10 00       	mov    $0x104964,%ebp
  100559:	56                   	push   %esi
  10055a:	53                   	push   %ebx
  10055b:	bb fd 03 00 00       	mov    $0x3fd,%ebx
  100560:	83 ec 0c             	sub    $0xc,%esp
  100563:	8b 74 24 20          	mov    0x20(%esp),%esi
  100567:	8b 7c 24 24          	mov    0x24(%esp),%edi
  10056b:	2e 8d 74 26 00       	lea    %cs:0x0(%esi,%eiz,1),%esi
  100570:	89 da                	mov    %ebx,%edx
  100572:	ec                   	in     (%dx),%al
  100573:	a8 20                	test   $0x20,%al
  100575:	74 f9                	je     100570 <OutL+0x20>
  100577:	88 c8                	mov    %cl,%al
  100579:	ba f8 03 00 00       	mov    $0x3f8,%edx
  10057e:	ee                   	out    %al,(%dx)
  10057f:	45                   	inc    %ebp
  100580:	81 fd 67 49 10 00    	cmp    $0x104967,%ebp
  100586:	74 29                	je     1005b1 <OutL+0x61>
  100588:	0f b6 4d 00          	movzbl 0x0(%ebp),%ecx
  10058c:	80 f9 0a             	cmp    $0xa,%cl
  10058f:	75 df                	jne    100570 <OutL+0x20>
  100591:	8d b4 26 00 00 00 00 	lea    0x0(%esi,%eiz,1),%esi
  100598:	2e 8d b4 26 00 00 00 	lea    %cs:0x0(%esi,%eiz,1),%esi
  10059f:	00 
  1005a0:	89 da                	mov    %ebx,%edx
  1005a2:	ec                   	in     (%dx),%al
  1005a3:	a8 20                	test   $0x20,%al
  1005a5:	74 f9                	je     1005a0 <OutL+0x50>
  1005a7:	b0 0d                	mov    $0xd,%al
  1005a9:	ba f8 03 00 00       	mov    $0x3f8,%edx
  1005ae:	ee                   	out    %al,(%dx)
  1005af:	eb bf                	jmp    100570 <OutL+0x20>
  1005b1:	b9 3c 00 00 00       	mov    $0x3c,%ecx
  1005b6:	bd f8 03 00 00       	mov    $0x3f8,%ebp
  1005bb:	2e 8d 74 26 00       	lea    %cs:0x0(%esi,%eiz,1),%esi
  1005c0:	89 f0                	mov    %esi,%eax
  1005c2:	89 fa                	mov    %edi,%edx
  1005c4:	0f ad f8             	shrd   %cl,%edi,%eax
  1005c7:	d3 ea                	shr    %cl,%edx
  1005c9:	f6 c1 20             	test   $0x20,%cl
  1005cc:	0f 45 c2             	cmovne %edx,%eax
  1005cf:	83 e0 0f             	and    $0xf,%eax
  1005d2:	0f b6 80 68 49 10 00 	movzbl 0x104968(%eax),%eax
  1005d9:	88 44 24 07          	mov    %al,0x7(%esp)
  1005dd:	8d 76 00             	lea    0x0(%esi),%esi
  1005e0:	ba fd 03 00 00       	mov    $0x3fd,%edx
  1005e5:	ec                   	in     (%dx),%al
  1005e6:	a8 20                	test   $0x20,%al
  1005e8:	74 f6                	je     1005e0 <OutL+0x90>
  1005ea:	0f b6 44 24 07       	movzbl 0x7(%esp),%eax
  1005ef:	89 ea                	mov    %ebp,%edx
  1005f1:	ee                   	out    %al,(%dx)
  1005f2:	83 e9 04             	sub    $0x4,%ecx
  1005f5:	83 f9 fc             	cmp    $0xfffffffc,%ecx
  1005f8:	75 c6                	jne    1005c0 <OutL+0x70>
  1005fa:	83 c4 0c             	add    $0xc,%esp
  1005fd:	5b                   	pop    %ebx
  1005fe:	5e                   	pop    %esi
  1005ff:	5f                   	pop    %edi
  100600:	5d                   	pop    %ebp
  100601:	c3                   	ret
  100602:	66 90                	xchg   %ax,%ax
  100604:	66 90                	xchg   %ax,%ax
  100606:	66 90                	xchg   %ax,%ax
  100608:	66 90                	xchg   %ax,%ax
  10060a:	66 90                	xchg   %ax,%ax
  10060c:	66 90                	xchg   %ax,%ax
  10060e:	66 90                	xchg   %ax,%ax

00100610 <Alloc>:
  100610:	a1 6c 20 10 00       	mov    0x10206c,%eax
  100615:	8b 54 24 04          	mov    0x4(%esp),%edx
  100619:	01 c2                	add    %eax,%edx
  10061b:	89 15 6c 20 10 00    	mov    %edx,0x10206c
  100621:	c3                   	ret
  100622:	66 90                	xchg   %ax,%ax
  100624:	66 90                	xchg   %ax,%ax
  100626:	66 90                	xchg   %ax,%ax
  100628:	66 90                	xchg   %ax,%ax
  10062a:	66 90                	xchg   %ax,%ax
  10062c:	66 90                	xchg   %ax,%ax
  10062e:	66 90                	xchg   %ax,%ax
  100630:	66 90                	xchg   %ax,%ax
  100632:	66 90                	xchg   %ax,%ax
  100634:	66 90                	xchg   %ax,%ax
  100636:	66 90                	xchg   %ax,%ax
  100638:	66 90                	xchg   %ax,%ax
  10063a:	66 90                	xchg   %ax,%ax
  10063c:	66 90                	xchg   %ax,%ax
  10063e:	66 90                	xchg   %ax,%ax

00100640 <GDTInstall>:
  100640:	8b 54 24 04          	mov    0x4(%esp),%edx
  100644:	fa                   	cli
  100645:	0f 01 12             	lgdtl  (%edx)
  100648:	66 b8 28 00          	mov    $0x28,%ax
  10064c:	0f 00 d8             	ltr    %eax
  10064f:	ea 56 06 10 00 08 00 	ljmp   $0x8,$0x100656

00100656 <cs_flush>:
  100656:	31 c0                	xor    %eax,%eax
  100658:	b8 10 00 00 00       	mov    $0x10,%eax
  10065d:	8e d8                	mov    %eax,%ds
  10065f:	8e c0                	mov    %eax,%es
  100661:	8e d0                	mov    %eax,%ss
  100663:	8e e0                	mov    %eax,%fs
  100665:	8e e8                	mov    %eax,%gs
  100667:	c3                   	ret
  100668:	c3                   	ret
  100669:	8d b4 26 00 00 00 00 	lea    0x0(%esi,%eiz,1),%esi

00100670 <GDTLoad>:
  100670:	31 c0                	xor    %eax,%eax
  100672:	83 ec 1c             	sub    $0x1c,%esp
  100675:	a3 f0 20 10 00       	mov    %eax,0x1020f0
  10067a:	31 c0                	xor    %eax,%eax
  10067c:	ba 00 92 c0 00       	mov    $0xc09200,%edx
  100681:	a3 f4 20 10 00       	mov    %eax,0x1020f4
  100686:	b8 ff 3f 00 00       	mov    $0x3fff,%eax
  10068b:	b9 ff 3f 00 00       	mov    $0x3fff,%ecx
  100690:	a3 f8 20 10 00       	mov    %eax,0x1020f8
  100695:	b8 00 9a c0 00       	mov    $0xc09a00,%eax
  10069a:	a3 fc 20 10 00       	mov    %eax,0x1020fc
  10069f:	b8 ff 3f 00 00       	mov    $0x3fff,%eax
  1006a4:	a3 00 21 10 00       	mov    %eax,0x102100
  1006a9:	b8 00 ba c0 00       	mov    $0xc0ba00,%eax
  1006ae:	a3 0c 21 10 00       	mov    %eax,0x10210c
  1006b3:	b8 ff 3f 00 00       	mov    $0x3fff,%eax
  1006b8:	a3 10 21 10 00       	mov    %eax,0x102110
  1006bd:	b8 00 b2 c0 00       	mov    $0xc0b200,%eax
  1006c2:	89 15 04 21 10 00    	mov    %edx,0x102104
  1006c8:	ba 70 20 10 00       	mov    $0x102070,%edx
  1006cd:	a3 14 21 10 00       	mov    %eax,0x102114
  1006d2:	31 c0                	xor    %eax,%eax
  1006d4:	89 0d 08 21 10 00    	mov    %ecx,0x102108
  1006da:	8d b6 00 00 00 00    	lea    0x0(%esi),%esi
  1006e0:	c6 80 70 20 10 00 00 	movb   $0x0,0x102070(%eax)
  1006e7:	83 c0 02             	add    $0x2,%eax
  1006ea:	c6 80 6f 20 10 00 00 	movb   $0x0,0x10206f(%eax)
  1006f1:	83 f8 6a             	cmp    $0x6a,%eax
  1006f4:	75 ea                	jne    1006e0 <GDTLoad+0x70>
  1006f6:	66 89 15 1a 21 10 00 	mov    %dx,0x10211a
  1006fd:	b8 10 00 00 00       	mov    $0x10,%eax
  100702:	b9 6a 00 00 00       	mov    $0x6a,%ecx
  100707:	a3 78 20 10 00       	mov    %eax,0x102078
  10070c:	89 d0                	mov    %edx,%eax
  10070e:	c7 04 24 90 49 10 00 	movl   $0x104990,(%esp)
  100715:	c1 e8 10             	shr    $0x10,%eax
  100718:	a2 1c 21 10 00       	mov    %al,0x10211c
  10071d:	c1 ea 18             	shr    $0x18,%edx
  100720:	b8 69 00 00 00       	mov    $0x69,%eax
  100725:	66 a3 18 21 10 00    	mov    %ax,0x102118
  10072b:	b8 89 00 00 00       	mov    $0x89,%eax
  100730:	66 a3 1d 21 10 00    	mov    %ax,0x10211d
  100736:	b8 69 00 00 00       	mov    $0x69,%eax
  10073b:	89 44 24 0c          	mov    %eax,0xc(%esp)
  10073f:	b8 70 20 10 00       	mov    $0x102070,%eax
  100744:	89 44 24 08          	mov    %eax,0x8(%esp)
  100748:	b8 79 49 10 00       	mov    $0x104979,%eax
  10074d:	89 44 24 04          	mov    %eax,0x4(%esp)
  100751:	89 0d d6 20 10 00    	mov    %ecx,0x1020d6
  100757:	88 15 1f 21 10 00    	mov    %dl,0x10211f
  10075d:	e8 be 05 00 00       	call   100d20 <LogF>
  100762:	8b 15 f4 20 10 00    	mov    0x1020f4,%edx
  100768:	b9 06 10 1d 00       	mov    $0x1d1006,%ecx
  10076d:	c7 04 24 00 10 1d 00 	movl   $0x1d1000,(%esp)
  100774:	a1 f0 20 10 00       	mov    0x1020f0,%eax
  100779:	89 0d 02 10 1d 00    	mov    %ecx,0x1d1002
  10077f:	89 15 0a 10 1d 00    	mov    %edx,0x1d100a
  100785:	8b 15 fc 20 10 00    	mov    0x1020fc,%edx
  10078b:	a3 06 10 1d 00       	mov    %eax,0x1d1006
  100790:	a1 f8 20 10 00       	mov    0x1020f8,%eax
  100795:	89 15 12 10 1d 00    	mov    %edx,0x1d1012
  10079b:	8b 15 04 21 10 00    	mov    0x102104,%edx
  1007a1:	a3 0e 10 1d 00       	mov    %eax,0x1d100e
  1007a6:	a1 00 21 10 00       	mov    0x102100,%eax
  1007ab:	89 15 1a 10 1d 00    	mov    %edx,0x1d101a
  1007b1:	8b 15 0c 21 10 00    	mov    0x10210c,%edx
  1007b7:	a3 16 10 1d 00       	mov    %eax,0x1d1016
  1007bc:	a1 08 21 10 00       	mov    0x102108,%eax
  1007c1:	89 15 22 10 1d 00    	mov    %edx,0x1d1022
  1007c7:	8b 15 14 21 10 00    	mov    0x102114,%edx
  1007cd:	a3 1e 10 1d 00       	mov    %eax,0x1d101e
  1007d2:	a1 10 21 10 00       	mov    0x102110,%eax
  1007d7:	89 15 2a 10 1d 00    	mov    %edx,0x1d102a
  1007dd:	8b 15 1c 21 10 00    	mov    0x10211c,%edx
  1007e3:	a3 26 10 1d 00       	mov    %eax,0x1d1026
  1007e8:	a1 18 21 10 00       	mov    0x102118,%eax
  1007ed:	89 15 32 10 1d 00    	mov    %edx,0x1d1032
  1007f3:	ba 2f 00 00 00       	mov    $0x2f,%edx
  1007f8:	a3 2e 10 1d 00       	mov    %eax,0x1d102e
  1007fd:	66 89 15 00 10 1d 00 	mov    %dx,0x1d1000
  100804:	e8 37 fe ff ff       	call   100640 <GDTInstall>
  100809:	83 c4 1c             	add    $0x1c,%esp
  10080c:	c3                   	ret
  10080d:	66 90                	xchg   %ax,%ax
  10080f:	66 90                	xchg   %ax,%ax
  100811:	66 90                	xchg   %ax,%ax
  100813:	66 90                	xchg   %ax,%ax
  100815:	66 90                	xchg   %ax,%ax
  100817:	66 90                	xchg   %ax,%ax
  100819:	66 90                	xchg   %ax,%ax
  10081b:	66 90                	xchg   %ax,%ax
  10081d:	66 90                	xchg   %ax,%ax
  10081f:	90                   	nop

00100820 <IDTCreateGate>:
  100820:	0f b6 44 24 04       	movzbl 0x4(%esp),%eax
  100825:	0f b7 4c 24 0c       	movzwl 0xc(%esp),%ecx
  10082a:	8b 54 24 08          	mov    0x8(%esp),%edx
  10082e:	66 89 0c c5 02 40 10 	mov    %cx,0x104002(,%eax,8)
  100835:	00 
  100836:	31 c9                	xor    %ecx,%ecx
  100838:	88 0c c5 04 40 10 00 	mov    %cl,0x104004(,%eax,8)
  10083f:	0f b6 4c 24 10       	movzbl 0x10(%esp),%ecx
  100844:	66 89 14 c5 00 40 10 	mov    %dx,0x104000(,%eax,8)
  10084b:	00 
  10084c:	c1 ea 10             	shr    $0x10,%edx
  10084f:	66 89 14 c5 06 40 10 	mov    %dx,0x104006(,%eax,8)
  100856:	00 
  100857:	88 0c c5 05 40 10 00 	mov    %cl,0x104005(,%eax,8)
  10085e:	c3                   	ret
  10085f:	90                   	nop

00100860 <IDTLoad>:
  100860:	b8 0b 01 10 00       	mov    $0x10010b,%eax
  100865:	ba 08 00 00 8e       	mov    $0x8e000008,%edx
  10086a:	66 a3 00 40 10 00    	mov    %ax,0x104000
  100870:	c1 e8 10             	shr    $0x10,%eax
  100873:	b9 08 00 00 8e       	mov    $0x8e000008,%ecx
  100878:	66 a3 06 40 10 00    	mov    %ax,0x104006
  10087e:	b8 11 01 10 00       	mov    $0x100111,%eax
  100883:	66 a3 08 40 10 00    	mov    %ax,0x104008
  100889:	c1 e8 10             	shr    $0x10,%eax
  10088c:	66 a3 0e 40 10 00    	mov    %ax,0x10400e
  100892:	b8 17 01 10 00       	mov    $0x100117,%eax
  100897:	66 a3 10 40 10 00    	mov    %ax,0x104010
  10089d:	c1 e8 10             	shr    $0x10,%eax
  1008a0:	66 a3 16 40 10 00    	mov    %ax,0x104016
  1008a6:	b8 1d 01 10 00       	mov    $0x10011d,%eax
  1008ab:	66 a3 18 40 10 00    	mov    %ax,0x104018
  1008b1:	c1 e8 10             	shr    $0x10,%eax
  1008b4:	66 a3 1e 40 10 00    	mov    %ax,0x10401e
  1008ba:	b8 23 01 10 00       	mov    $0x100123,%eax
  1008bf:	66 a3 20 40 10 00    	mov    %ax,0x104020
  1008c5:	c1 e8 10             	shr    $0x10,%eax
  1008c8:	66 a3 26 40 10 00    	mov    %ax,0x104026
  1008ce:	b8 29 01 10 00       	mov    $0x100129,%eax
  1008d3:	66 a3 28 40 10 00    	mov    %ax,0x104028
  1008d9:	c1 e8 10             	shr    $0x10,%eax
  1008dc:	66 a3 2e 40 10 00    	mov    %ax,0x10402e
  1008e2:	b8 2f 01 10 00       	mov    $0x10012f,%eax
  1008e7:	66 a3 30 40 10 00    	mov    %ax,0x104030
  1008ed:	c1 e8 10             	shr    $0x10,%eax
  1008f0:	66 a3 36 40 10 00    	mov    %ax,0x104036
  1008f6:	b8 35 01 10 00       	mov    $0x100135,%eax
  1008fb:	66 a3 38 40 10 00    	mov    %ax,0x104038
  100901:	c1 e8 10             	shr    $0x10,%eax
  100904:	66 a3 3e 40 10 00    	mov    %ax,0x10403e
  10090a:	b8 3b 01 10 00       	mov    $0x10013b,%eax
  10090f:	89 15 02 40 10 00    	mov    %edx,0x104002
  100915:	ba 08 00 00 8e       	mov    $0x8e000008,%edx
  10091a:	66 a3 40 40 10 00    	mov    %ax,0x104040
  100920:	c1 e8 10             	shr    $0x10,%eax
  100923:	89 0d 0a 40 10 00    	mov    %ecx,0x10400a
  100929:	b9 08 00 00 8e       	mov    $0x8e000008,%ecx
  10092e:	89 15 12 40 10 00    	mov    %edx,0x104012
  100934:	ba 08 00 00 8e       	mov    $0x8e000008,%edx
  100939:	66 a3 46 40 10 00    	mov    %ax,0x104046
  10093f:	b8 41 01 10 00       	mov    $0x100141,%eax
  100944:	89 0d 1a 40 10 00    	mov    %ecx,0x10401a
  10094a:	b9 08 00 00 8e       	mov    $0x8e000008,%ecx
  10094f:	89 15 22 40 10 00    	mov    %edx,0x104022
  100955:	ba 08 00 00 8e       	mov    $0x8e000008,%edx
  10095a:	66 a3 48 40 10 00    	mov    %ax,0x104048
  100960:	c1 e8 10             	shr    $0x10,%eax
  100963:	89 0d 2a 40 10 00    	mov    %ecx,0x10402a
  100969:	b9 08 00 00 8e       	mov    $0x8e000008,%ecx
  10096e:	89 15 32 40 10 00    	mov    %edx,0x104032
  100974:	ba 08 00 00 8e       	mov    $0x8e000008,%edx
  100979:	66 a3 4e 40 10 00    	mov    %ax,0x10404e
  10097f:	b8 4a 01 10 00       	mov    $0x10014a,%eax
  100984:	89 0d 3a 40 10 00    	mov    %ecx,0x10403a
  10098a:	b9 08 00 00 8e       	mov    $0x8e000008,%ecx
  10098f:	89 15 42 40 10 00    	mov    %edx,0x104042
  100995:	ba 08 00 00 8e       	mov    $0x8e000008,%edx
  10099a:	66 a3 50 40 10 00    	mov    %ax,0x104050
  1009a0:	c1 e8 10             	shr    $0x10,%eax
  1009a3:	89 0d 4a 40 10 00    	mov    %ecx,0x10404a
  1009a9:	b9 08 00 00 8e       	mov    $0x8e000008,%ecx
  1009ae:	89 15 52 40 10 00    	mov    %edx,0x104052
  1009b4:	ba 08 00 00 8e       	mov    $0x8e000008,%edx
  1009b9:	66 a3 56 40 10 00    	mov    %ax,0x104056
  1009bf:	b8 53 01 10 00       	mov    $0x100153,%eax
  1009c4:	66 a3 58 40 10 00    	mov    %ax,0x104058
  1009ca:	c1 e8 10             	shr    $0x10,%eax
  1009cd:	66 a3 5e 40 10 00    	mov    %ax,0x10405e
  1009d3:	b8 5c 01 10 00       	mov    $0x10015c,%eax
  1009d8:	66 a3 60 40 10 00    	mov    %ax,0x104060
  1009de:	c1 e8 10             	shr    $0x10,%eax
  1009e1:	66 a3 66 40 10 00    	mov    %ax,0x104066
  1009e7:	b8 65 01 10 00       	mov    $0x100165,%eax
  1009ec:	66 a3 68 40 10 00    	mov    %ax,0x104068
  1009f2:	c1 e8 10             	shr    $0x10,%eax
  1009f5:	66 a3 6e 40 10 00    	mov    %ax,0x10406e
  1009fb:	b8 e8 00 10 00       	mov    $0x1000e8,%eax
  100a00:	66 a3 70 40 10 00    	mov    %ax,0x104070
  100a06:	c1 e8 10             	shr    $0x10,%eax
  100a09:	66 a3 76 40 10 00    	mov    %ax,0x104076
  100a0f:	b8 75 01 10 00       	mov    $0x100175,%eax
  100a14:	66 a3 78 40 10 00    	mov    %ax,0x104078
  100a1a:	c1 e8 10             	shr    $0x10,%eax
  100a1d:	66 a3 7e 40 10 00    	mov    %ax,0x10407e
  100a23:	b8 7e 01 10 00       	mov    $0x10017e,%eax
  100a28:	66 a3 80 40 10 00    	mov    %ax,0x104080
  100a2e:	c1 e8 10             	shr    $0x10,%eax
  100a31:	66 a3 86 40 10 00    	mov    %ax,0x104086
  100a37:	b8 87 01 10 00       	mov    $0x100187,%eax
  100a3c:	66 a3 88 40 10 00    	mov    %ax,0x104088
  100a42:	c1 e8 10             	shr    $0x10,%eax
  100a45:	66 a3 8e 40 10 00    	mov    %ax,0x10408e
  100a4b:	b8 90 01 10 00       	mov    $0x100190,%eax
  100a50:	66 a3 90 40 10 00    	mov    %ax,0x104090
  100a56:	c1 e8 10             	shr    $0x10,%eax
  100a59:	89 0d 5a 40 10 00    	mov    %ecx,0x10405a
  100a5f:	b9 08 00 00 8e       	mov    $0x8e000008,%ecx
  100a64:	89 15 62 40 10 00    	mov    %edx,0x104062
  100a6a:	ba 08 00 00 8e       	mov    $0x8e000008,%edx
  100a6f:	66 a3 96 40 10 00    	mov    %ax,0x104096
  100a75:	b8 99 01 10 00       	mov    $0x100199,%eax
  100a7a:	89 0d 6a 40 10 00    	mov    %ecx,0x10406a
  100a80:	b9 08 00 00 8e       	mov    $0x8e000008,%ecx
  100a85:	89 15 72 40 10 00    	mov    %edx,0x104072
  100a8b:	ba 08 00 00 8e       	mov    $0x8e000008,%edx
  100a90:	66 a3 98 40 10 00    	mov    %ax,0x104098
  100a96:	c1 e8 10             	shr    $0x10,%eax
  100a99:	89 0d 7a 40 10 00    	mov    %ecx,0x10407a
  100a9f:	b9 08 00 00 8e       	mov    $0x8e000008,%ecx
  100aa4:	89 15 82 40 10 00    	mov    %edx,0x104082
  100aaa:	ba 08 00 00 8e       	mov    $0x8e000008,%edx
  100aaf:	66 a3 9e 40 10 00    	mov    %ax,0x10409e
  100ab5:	b8 a2 01 10 00       	mov    $0x1001a2,%eax
  100aba:	89 0d 8a 40 10 00    	mov    %ecx,0x10408a
  100ac0:	b9 08 00 00 8e       	mov    $0x8e000008,%ecx
  100ac5:	89 15 92 40 10 00    	mov    %edx,0x104092
  100acb:	ba 08 00 00 8e       	mov    $0x8e000008,%edx
  100ad0:	66 a3 a0 40 10 00    	mov    %ax,0x1040a0
  100ad6:	c1 e8 10             	shr    $0x10,%eax
  100ad9:	89 0d 9a 40 10 00    	mov    %ecx,0x10409a
  100adf:	b9 08 00 00 8e       	mov    $0x8e000008,%ecx
  100ae4:	89 15 a2 40 10 00    	mov    %edx,0x1040a2
  100aea:	ba b4 01 10 00       	mov    $0x1001b4,%edx
  100aef:	66 a3 a6 40 10 00    	mov    %ax,0x1040a6
  100af5:	b8 ab 01 10 00       	mov    $0x1001ab,%eax
  100afa:	66 a3 a8 40 10 00    	mov    %ax,0x1040a8
  100b00:	c1 e8 10             	shr    $0x10,%eax
  100b03:	89 0d aa 40 10 00    	mov    %ecx,0x1040aa
  100b09:	89 d1                	mov    %edx,%ecx
  100b0b:	66 a3 ae 40 10 00    	mov    %ax,0x1040ae
  100b11:	c1 e9 10             	shr    $0x10,%ecx
  100b14:	b8 b0 40 10 00       	mov    $0x1040b0,%eax
  100b19:	8d b4 26 00 00 00 00 	lea    0x0(%esi,%eiz,1),%esi
  100b20:	66 89 10             	mov    %dx,(%eax)
  100b23:	83 c0 08             	add    $0x8,%eax
  100b26:	66 c7 40 fa 08 00    	movw   $0x8,-0x6(%eax)
  100b2c:	c6 40 fc 00          	movb   $0x0,-0x4(%eax)
  100b30:	c6 40 fd 8e          	movb   $0x8e,-0x3(%eax)
  100b34:	66 89 48 fe          	mov    %cx,-0x2(%eax)
  100b38:	3d f8 47 10 00       	cmp    $0x1047f8,%eax
  100b3d:	75 e1                	jne    100b20 <IDTLoad+0x2c0>
  100b3f:	b8 50 02 10 00       	mov    $0x100250,%eax
  100b44:	ba 08 00 00 8e       	mov    $0x8e000008,%edx
  100b49:	66 a3 00 41 10 00    	mov    %ax,0x104100
  100b4f:	c1 e8 10             	shr    $0x10,%eax
  100b52:	b9 08 00 00 8e       	mov    $0x8e000008,%ecx
  100b57:	66 a3 06 41 10 00    	mov    %ax,0x104106
  100b5d:	b8 42 00 10 00       	mov    $0x100042,%eax
  100b62:	66 a3 20 41 10 00    	mov    %ax,0x104120
  100b68:	c1 e8 10             	shr    $0x10,%eax
  100b6b:	66 a3 26 41 10 00    	mov    %ax,0x104126
  100b71:	b8 ff 07 00 00       	mov    $0x7ff,%eax
  100b76:	66 a3 00 30 10 00    	mov    %ax,0x103000
  100b7c:	b8 00 40 10 00       	mov    $0x104000,%eax
  100b81:	89 15 02 41 10 00    	mov    %edx,0x104102
  100b87:	89 0d 22 41 10 00    	mov    %ecx,0x104122
  100b8d:	a3 02 30 10 00       	mov    %eax,0x103002
  100b92:	0f 01 1d 00 30 10 00 	lidtl  0x103000
  100b99:	fb                   	sti
  100b9a:	c3                   	ret
  100b9b:	66 90                	xchg   %ax,%ax
  100b9d:	66 90                	xchg   %ax,%ax
  100b9f:	90                   	nop

00100ba0 <CIRQErr>:
  100ba0:	83 ec 2c             	sub    $0x2c,%esp
  100ba3:	8b 44 24 30          	mov    0x30(%esp),%eax
  100ba7:	8b 50 30             	mov    0x30(%eax),%edx
  100baa:	89 54 24 10          	mov    %edx,0x10(%esp)
  100bae:	8b 50 20             	mov    0x20(%eax),%edx
  100bb1:	89 54 24 0c          	mov    %edx,0xc(%esp)
  100bb5:	8b 40 2c             	mov    0x2c(%eax),%eax
  100bb8:	8b 04 85 00 48 10 00 	mov    0x104800(,%eax,4),%eax
  100bbf:	c7 04 24 94 49 10 00 	movl   $0x104994,(%esp)
  100bc6:	89 44 24 08          	mov    %eax,0x8(%esp)
  100bca:	b8 50 4d 10 00       	mov    $0x104d50,%eax
  100bcf:	89 44 24 04          	mov    %eax,0x4(%esp)
  100bd3:	e8 48 01 00 00       	call   100d20 <LogF>

00100bd8 <g>:
  100bd8:	eb fe                	jmp    100bd8 <g>
  100bda:	83 c4 2c             	add    $0x2c,%esp
  100bdd:	c3                   	ret
  100bde:	66 90                	xchg   %ax,%ax

00100be0 <CIRQNonErr>:
  100be0:	83 ec 2c             	sub    $0x2c,%esp
  100be3:	89 5c 24 28          	mov    %ebx,0x28(%esp)
  100be7:	8b 5c 24 30          	mov    0x30(%esp),%ebx
  100beb:	8b 43 30             	mov    0x30(%ebx),%eax
  100bee:	89 44 24 18          	mov    %eax,0x18(%esp)
  100bf2:	8b 43 34             	mov    0x34(%ebx),%eax
  100bf5:	89 44 24 14          	mov    %eax,0x14(%esp)
  100bf9:	8b 43 38             	mov    0x38(%ebx),%eax
  100bfc:	89 44 24 10          	mov    %eax,0x10(%esp)
  100c00:	8b 43 28             	mov    0x28(%ebx),%eax
  100c03:	89 44 24 0c          	mov    %eax,0xc(%esp)
  100c07:	8b 43 2c             	mov    0x2c(%ebx),%eax
  100c0a:	c7 04 24 9a 49 10 00 	movl   $0x10499a,(%esp)
  100c11:	89 44 24 08          	mov    %eax,0x8(%esp)
  100c15:	b8 74 4d 10 00       	mov    $0x104d74,%eax
  100c1a:	89 44 24 04          	mov    %eax,0x4(%esp)
  100c1e:	e8 fd 00 00 00       	call   100d20 <LogF>
  100c23:	8b 43 10             	mov    0x10(%ebx),%eax
  100c26:	ba a0 4d 10 00       	mov    $0x104da0,%edx
  100c2b:	89 44 24 18          	mov    %eax,0x18(%esp)
  100c2f:	8b 43 14             	mov    0x14(%ebx),%eax
  100c32:	89 44 24 14          	mov    %eax,0x14(%esp)
  100c36:	8b 43 18             	mov    0x18(%ebx),%eax
  100c39:	89 44 24 10          	mov    %eax,0x10(%esp)
  100c3d:	8b 43 1c             	mov    0x1c(%ebx),%eax
  100c40:	89 44 24 0c          	mov    %eax,0xc(%esp)
  100c44:	8b 43 20             	mov    0x20(%ebx),%eax
  100c47:	89 54 24 04          	mov    %edx,0x4(%esp)
  100c4b:	c7 04 24 9a 49 10 00 	movl   $0x10499a,(%esp)
  100c52:	89 44 24 08          	mov    %eax,0x8(%esp)
  100c56:	e8 c5 00 00 00       	call   100d20 <LogF>
  100c5b:	8b 03                	mov    (%ebx),%eax
  100c5d:	b9 9e 49 10 00       	mov    $0x10499e,%ecx
  100c62:	89 44 24 14          	mov    %eax,0x14(%esp)
  100c66:	8b 43 04             	mov    0x4(%ebx),%eax
  100c69:	89 44 24 10          	mov    %eax,0x10(%esp)
  100c6d:	8b 43 08             	mov    0x8(%ebx),%eax
  100c70:	89 44 24 0c          	mov    %eax,0xc(%esp)
  100c74:	8b 43 0c             	mov    0xc(%ebx),%eax
  100c77:	89 4c 24 04          	mov    %ecx,0x4(%esp)
  100c7b:	c7 04 24 9a 49 10 00 	movl   $0x10499a,(%esp)
  100c82:	89 44 24 08          	mov    %eax,0x8(%esp)
  100c86:	e8 95 00 00 00       	call   100d20 <LogF>
  100c8b:	8b 43 30             	mov    0x30(%ebx),%eax
  100c8e:	89 44 24 10          	mov    %eax,0x10(%esp)
  100c92:	8b 43 20             	mov    0x20(%ebx),%eax
  100c95:	89 44 24 0c          	mov    %eax,0xc(%esp)
  100c99:	8b 43 2c             	mov    0x2c(%ebx),%eax
  100c9c:	bb 50 4d 10 00       	mov    $0x104d50,%ebx
  100ca1:	8b 04 85 00 48 10 00 	mov    0x104800(,%eax,4),%eax
  100ca8:	89 5c 24 04          	mov    %ebx,0x4(%esp)
  100cac:	c7 04 24 9a 49 10 00 	movl   $0x10499a,(%esp)
  100cb3:	89 44 24 08          	mov    %eax,0x8(%esp)
  100cb7:	e8 64 00 00 00       	call   100d20 <LogF>
  100cbc:	8b 5c 24 28          	mov    0x28(%esp),%ebx
  100cc0:	83 c4 2c             	add    $0x2c,%esp
  100cc3:	c3                   	ret
  100cc4:	8d 74 26 00          	lea    0x0(%esi,%eiz,1),%esi
  100cc8:	2e 8d b4 26 00 00 00 	lea    %cs:0x0(%esi,%eiz,1),%esi
  100ccf:	00 

00100cd0 <CPage>:
  100cd0:	83 ec 2c             	sub    $0x2c,%esp
  100cd3:	8b 44 24 30          	mov    0x30(%esp),%eax
  100cd7:	8b 50 24             	mov    0x24(%eax),%edx
  100cda:	89 54 24 14          	mov    %edx,0x14(%esp)
  100cde:	8b 50 30             	mov    0x30(%eax),%edx
  100ce1:	89 54 24 10          	mov    %edx,0x10(%esp)
  100ce5:	8b 50 20             	mov    0x20(%eax),%edx
  100ce8:	89 54 24 0c          	mov    %edx,0xc(%esp)
  100cec:	8b 40 2c             	mov    0x2c(%eax),%eax
  100cef:	8b 04 85 00 48 10 00 	mov    0x104800(,%eax,4),%eax
  100cf6:	c7 04 24 d7 49 10 00 	movl   $0x1049d7,(%esp)
  100cfd:	89 44 24 08          	mov    %eax,0x8(%esp)
  100d01:	b8 ba 49 10 00       	mov    $0x1049ba,%eax
  100d06:	89 44 24 04          	mov    %eax,0x4(%esp)
  100d0a:	e8 11 00 00 00       	call   100d20 <LogF>

00100d0f <p>:
  100d0f:	eb fe                	jmp    100d0f <p>
  100d11:	83 c4 2c             	add    $0x2c,%esp
  100d14:	c3                   	ret
  100d15:	66 90                	xchg   %ax,%ax
  100d17:	66 90                	xchg   %ax,%ax
  100d19:	66 90                	xchg   %ax,%ax
  100d1b:	66 90                	xchg   %ax,%ax
  100d1d:	66 90                	xchg   %ax,%ax
  100d1f:	90                   	nop

00100d20 <LogF>:
  100d20:	83 ec 1c             	sub    $0x1c,%esp
  100d23:	89 7c 24 18          	mov    %edi,0x18(%esp)
  100d27:	8b 44 24 20          	mov    0x20(%esp),%eax
  100d2b:	8b 7c 24 24          	mov    0x24(%esp),%edi
  100d2f:	89 04 24             	mov    %eax,(%esp)
  100d32:	e8 19 f6 ff ff       	call   100350 <OutS>
  100d37:	c7 04 24 8a 4b 10 00 	movl   $0x104b8a,(%esp)
  100d3e:	e8 0d f6 ff ff       	call   100350 <OutS>
  100d43:	0f be 07             	movsbl (%edi),%eax
  100d46:	84 c0                	test   %al,%al
  100d48:	74 69                	je     100db3 <LogF+0x93>
  100d4a:	89 5c 24 10          	mov    %ebx,0x10(%esp)
  100d4e:	8d 5c 24 28          	lea    0x28(%esp),%ebx
  100d52:	89 74 24 14          	mov    %esi,0x14(%esp)
  100d56:	66 90                	xchg   %ax,%ax
  100d58:	2e 8d b4 26 00 00 00 	lea    %cs:0x0(%esi,%eiz,1),%esi
  100d5f:	00 
  100d60:	8d 77 01             	lea    0x1(%edi),%esi
  100d63:	3c 25                	cmp    $0x25,%al
  100d65:	0f 85 fd 00 00 00    	jne    100e68 <LogF+0x148>
  100d6b:	0f b6 47 01          	movzbl 0x1(%edi),%eax
  100d6f:	3c 25                	cmp    $0x25,%al
  100d71:	74 15                	je     100d88 <LogF+0x68>
  100d73:	2c 62                	sub    $0x62,%al
  100d75:	3c 16                	cmp    $0x16,%al
  100d77:	77 0f                	ja     100d88 <LogF+0x68>
  100d79:	0f b6 c0             	movzbl %al,%eax
  100d7c:	ff 24 85 c8 48 10 00 	jmp    *0x1048c8(,%eax,4)
  100d83:	2e 8d 74 26 00       	lea    %cs:0x0(%esi,%eiz,1),%esi
  100d88:	c7 04 24 25 00 00 00 	movl   $0x25,(%esp)
  100d8f:	e8 8c f5 ff ff       	call   100320 <OutC>
  100d94:	8d 74 26 00          	lea    0x0(%esi,%eiz,1),%esi
  100d98:	2e 8d b4 26 00 00 00 	lea    %cs:0x0(%esi,%eiz,1),%esi
  100d9f:	00 
  100da0:	0f be 46 01          	movsbl 0x1(%esi),%eax
  100da4:	8d 7e 01             	lea    0x1(%esi),%edi
  100da7:	84 c0                	test   %al,%al
  100da9:	75 b5                	jne    100d60 <LogF+0x40>
  100dab:	8b 5c 24 10          	mov    0x10(%esp),%ebx
  100daf:	8b 74 24 14          	mov    0x14(%esp),%esi
  100db3:	c7 04 24 0a 00 00 00 	movl   $0xa,(%esp)
  100dba:	e8 61 f5 ff ff       	call   100320 <OutC>
  100dbf:	8b 7c 24 18          	mov    0x18(%esp),%edi
  100dc3:	83 c4 1c             	add    $0x1c,%esp
  100dc6:	c3                   	ret
  100dc7:	90                   	nop
  100dc8:	2e 8d b4 26 00 00 00 	lea    %cs:0x0(%esi,%eiz,1),%esi
  100dcf:	00 
  100dd0:	89 d8                	mov    %ebx,%eax
  100dd2:	83 c3 04             	add    $0x4,%ebx
  100dd5:	8b 00                	mov    (%eax),%eax
  100dd7:	89 04 24             	mov    %eax,(%esp)
  100dda:	e8 81 f6 ff ff       	call   100460 <OutH>
  100ddf:	eb bf                	jmp    100da0 <LogF+0x80>
  100de1:	8d b4 26 00 00 00 00 	lea    0x0(%esi,%eiz,1),%esi
  100de8:	89 d8                	mov    %ebx,%eax
  100dea:	83 c3 04             	add    $0x4,%ebx
  100ded:	8b 00                	mov    (%eax),%eax
  100def:	89 04 24             	mov    %eax,(%esp)
  100df2:	e8 59 f5 ff ff       	call   100350 <OutS>
  100df7:	eb a7                	jmp    100da0 <LogF+0x80>
  100df9:	8d b4 26 00 00 00 00 	lea    0x0(%esi,%eiz,1),%esi
  100e00:	89 d8                	mov    %ebx,%eax
  100e02:	83 c3 08             	add    $0x8,%ebx
  100e05:	8b 50 04             	mov    0x4(%eax),%edx
  100e08:	8b 00                	mov    (%eax),%eax
  100e0a:	89 54 24 04          	mov    %edx,0x4(%esp)
  100e0e:	89 04 24             	mov    %eax,(%esp)
  100e11:	e8 3a f7 ff ff       	call   100550 <OutL>
  100e16:	eb 88                	jmp    100da0 <LogF+0x80>
  100e18:	2e 8d b4 26 00 00 00 	lea    %cs:0x0(%esi,%eiz,1),%esi
  100e1f:	00 
  100e20:	89 d8                	mov    %ebx,%eax
  100e22:	83 c3 04             	add    $0x4,%ebx
  100e25:	8b 00                	mov    (%eax),%eax
  100e27:	89 04 24             	mov    %eax,(%esp)
  100e2a:	e8 91 f5 ff ff       	call   1003c0 <OutI>
  100e2f:	e9 6c ff ff ff       	jmp    100da0 <LogF+0x80>
  100e34:	8d 74 26 00          	lea    0x0(%esi,%eiz,1),%esi
  100e38:	89 d8                	mov    %ebx,%eax
  100e3a:	83 c3 04             	add    $0x4,%ebx
  100e3d:	0f be 00             	movsbl (%eax),%eax
  100e40:	89 04 24             	mov    %eax,(%esp)
  100e43:	e8 d8 f4 ff ff       	call   100320 <OutC>
  100e48:	e9 53 ff ff ff       	jmp    100da0 <LogF+0x80>
  100e4d:	8d 76 00             	lea    0x0(%esi),%esi
  100e50:	89 d8                	mov    %ebx,%eax
  100e52:	83 c3 04             	add    $0x4,%ebx
  100e55:	8b 00                	mov    (%eax),%eax
  100e57:	89 04 24             	mov    %eax,(%esp)
  100e5a:	e8 b1 f6 ff ff       	call   100510 <OutB>
  100e5f:	e9 3c ff ff ff       	jmp    100da0 <LogF+0x80>
  100e64:	8d 74 26 00          	lea    0x0(%esi,%eiz,1),%esi
  100e68:	89 04 24             	mov    %eax,(%esp)
  100e6b:	89 fe                	mov    %edi,%esi
  100e6d:	e8 ae f4 ff ff       	call   100320 <OutC>
  100e72:	e9 29 ff ff ff       	jmp    100da0 <LogF+0x80>
  100e77:	66 90                	xchg   %ax,%ax
  100e79:	66 90                	xchg   %ax,%ax
  100e7b:	66 90                	xchg   %ax,%ax
  100e7d:	66 90                	xchg   %ax,%ax
  100e7f:	90                   	nop

00100e80 <Setup>:
  100e80:	53                   	push   %ebx
  100e81:	31 c0                	xor    %eax,%eax
  100e83:	83 ec 28             	sub    $0x28,%esp
  100e86:	89 44 24 10          	mov    %eax,0x10(%esp)
  100e8a:	9c                   	pushf
  100e8b:	8f 44 24 10          	pop    0x10(%esp)
  100e8f:	e8 4c f4 ff ff       	call   1002e0 <UARTInit>
  100e94:	c7 04 24 0a 00 00 00 	movl   $0xa,(%esp)
  100e9b:	e8 80 f4 ff ff       	call   100320 <OutC>
  100ea0:	b8 88 4e 10 00       	mov    $0x104e88,%eax
  100ea5:	89 44 24 04          	mov    %eax,0x4(%esp)
  100ea9:	c7 04 24 92 4b 10 00 	movl   $0x104b92,(%esp)
  100eb0:	e8 6b fe ff ff       	call   100d20 <LogF>
  100eb5:	b8 b0 4e 10 00       	mov    $0x104eb0,%eax
  100eba:	89 44 24 04          	mov    %eax,0x4(%esp)
  100ebe:	c7 04 24 97 4b 10 00 	movl   $0x104b97,(%esp)
  100ec5:	e8 56 fe ff ff       	call   100d20 <LogF>
  100eca:	81 7c 24 30 02 b0 ad 	cmpl   $0x2badb002,0x30(%esp)
  100ed1:	2b 
  100ed2:	74 0c                	je     100ee0 <Setup+0x60>
  100ed4:	c7 04 24 9c 4b 10 00 	movl   $0x104b9c,(%esp)
  100edb:	e8 50 03 00 00       	call   101230 <FAULT>
  100ee0:	e8 8b f7 ff ff       	call   100670 <GDTLoad>
  100ee5:	0f 01 44 24 14       	sgdtl  0x14(%esp)
  100eea:	c7 04 24 90 49 10 00 	movl   $0x104990,(%esp)
  100ef1:	0f b7 44 24 14       	movzwl 0x14(%esp),%eax
  100ef6:	89 44 24 0c          	mov    %eax,0xc(%esp)
  100efa:	8b 44 24 16          	mov    0x16(%esp),%eax
  100efe:	89 44 24 08          	mov    %eax,0x8(%esp)
  100f02:	b8 ad 4b 10 00       	mov    $0x104bad,%eax
  100f07:	89 44 24 04          	mov    %eax,0x4(%esp)
  100f0b:	e8 10 fe ff ff       	call   100d20 <LogF>
  100f10:	ba ca 4b 10 00       	mov    $0x104bca,%edx
  100f15:	89 54 24 04          	mov    %edx,0x4(%esp)
  100f19:	c7 04 24 e2 4b 10 00 	movl   $0x104be2,(%esp)
  100f20:	e8 fb fd ff ff       	call   100d20 <LogF>
  100f25:	e8 36 f9 ff ff       	call   100860 <IDTLoad>
  100f2a:	0f 01 4c 24 1a       	sidtl  0x1a(%esp)
  100f2f:	0f b7 44 24 1a       	movzwl 0x1a(%esp),%eax
  100f34:	b9 ad 4b 10 00       	mov    $0x104bad,%ecx
  100f39:	bb ea 4b 10 00       	mov    $0x104bea,%ebx
  100f3e:	89 4c 24 04          	mov    %ecx,0x4(%esp)
  100f42:	c7 04 24 e6 4b 10 00 	movl   $0x104be6,(%esp)
  100f49:	89 44 24 0c          	mov    %eax,0xc(%esp)
  100f4d:	8b 44 24 1c          	mov    0x1c(%esp),%eax
  100f51:	89 44 24 08          	mov    %eax,0x8(%esp)
  100f55:	e8 c6 fd ff ff       	call   100d20 <LogF>
  100f5a:	8b 44 24 10          	mov    0x10(%esp),%eax
  100f5e:	89 5c 24 04          	mov    %ebx,0x4(%esp)
  100f62:	c7 04 24 f5 4b 10 00 	movl   $0x104bf5,(%esp)
  100f69:	89 44 24 08          	mov    %eax,0x8(%esp)
  100f6d:	e8 ae fd ff ff       	call   100d20 <LogF>
  100f72:	e8 29 03 00 00       	call   1012a0 <PICInit>
  100f77:	b8 f9 4b 10 00       	mov    $0x104bf9,%eax
  100f7c:	89 44 24 04          	mov    %eax,0x4(%esp)
  100f80:	c7 04 24 04 4c 10 00 	movl   $0x104c04,(%esp)
  100f87:	e8 94 fd ff ff       	call   100d20 <LogF>
  100f8c:	c7 04 24 0a 00 00 00 	movl   $0xa,(%esp)
  100f93:	e8 98 f2 ff ff       	call   100230 <TimerInit>
  100f98:	b8 08 4c 10 00       	mov    $0x104c08,%eax
  100f9d:	89 44 24 04          	mov    %eax,0x4(%esp)
  100fa1:	c7 04 24 15 4c 10 00 	movl   $0x104c15,(%esp)
  100fa8:	e8 73 fd ff ff       	call   100d20 <LogF>
  100fad:	e8 dc f0 ff ff       	call   10008e <FPUInit>
  100fb2:	b8 d8 4e 10 00       	mov    $0x104ed8,%eax
  100fb7:	89 44 24 04          	mov    %eax,0x4(%esp)
  100fbb:	c7 04 24 19 4c 10 00 	movl   $0x104c19,(%esp)
  100fc2:	e8 59 fd ff ff       	call   100d20 <LogF>
  100fc7:	e8 31 f2 ff ff       	call   1001fd <SSEInit>
  100fcc:	b8 1c 4f 10 00       	mov    $0x104f1c,%eax
  100fd1:	89 44 24 04          	mov    %eax,0x4(%esp)
  100fd5:	c7 04 24 1d 4c 10 00 	movl   $0x104c1d,(%esp)
  100fdc:	e8 3f fd ff ff       	call   100d20 <LogF>
  100fe1:	8b 44 24 34          	mov    0x34(%esp),%eax
  100fe5:	89 04 24             	mov    %eax,(%esp)
  100fe8:	e8 53 03 00 00       	call   101340 <DumbPMMInit>
  100fed:	b8 21 4c 10 00       	mov    $0x104c21,%eax
  100ff2:	89 44 24 04          	mov    %eax,0x4(%esp)
  100ff6:	c7 04 24 38 4c 10 00 	movl   $0x104c38,(%esp)
  100ffd:	e8 1e fd ff ff       	call   100d20 <LogF>
  101002:	c7 04 24 00 10 00 00 	movl   $0x1000,(%esp)
  101009:	e8 c2 04 00 00       	call   1014d0 <DumbPMMAlloc>
  10100e:	ba 3c 4c 10 00       	mov    $0x104c3c,%edx
  101013:	89 54 24 04          	mov    %edx,0x4(%esp)
  101017:	c7 04 24 38 4c 10 00 	movl   $0x104c38,(%esp)
  10101e:	89 44 24 08          	mov    %eax,0x8(%esp)
  101022:	89 c3                	mov    %eax,%ebx
  101024:	e8 f7 fc ff ff       	call   100d20 <LogF>
  101029:	89 1c 24             	mov    %ebx,(%esp)
  10102c:	bb 4c 4f 10 00       	mov    $0x104f4c,%ebx
  101031:	e8 1a 05 00 00       	call   101550 <DumbPMMFree>
  101036:	b9 59 4c 10 00       	mov    $0x104c59,%ecx
  10103b:	89 4c 24 04          	mov    %ecx,0x4(%esp)
  10103f:	c7 04 24 38 4c 10 00 	movl   $0x104c38,(%esp)
  101046:	e8 d5 fc ff ff       	call   100d20 <LogF>
  10104b:	e8 20 01 00 00       	call   101170 <PagingInit>
  101050:	89 5c 24 04          	mov    %ebx,0x4(%esp)
  101054:	c7 04 24 6c 4c 10 00 	movl   $0x104c6c,(%esp)
  10105b:	e8 c0 fc ff ff       	call   100d20 <LogF>
  101060:	e8 58 f1 ff ff       	call   1001bd <GoToR3>
  101065:	66 90                	xchg   %ax,%ax
  101067:	66 90                	xchg   %ax,%ax
  101069:	66 90                	xchg   %ax,%ax
  10106b:	66 90                	xchg   %ax,%ax
  10106d:	66 90                	xchg   %ax,%ax
  10106f:	66 90                	xchg   %ax,%ax
  101071:	66 90                	xchg   %ax,%ax
  101073:	66 90                	xchg   %ax,%ax
  101075:	66 90                	xchg   %ax,%ax
  101077:	66 90                	xchg   %ax,%ax
  101079:	66 90                	xchg   %ax,%ax
  10107b:	66 90                	xchg   %ax,%ax
  10107d:	66 90                	xchg   %ax,%ax
  10107f:	90                   	nop

00101080 <MapAPage>:
  101080:	83 ec 2c             	sub    $0x2c,%esp
  101083:	89 5c 24 20          	mov    %ebx,0x20(%esp)
  101087:	8b 5c 24 30          	mov    0x30(%esp),%ebx
  10108b:	89 74 24 24          	mov    %esi,0x24(%esp)
  10108f:	89 de                	mov    %ebx,%esi
  101091:	89 d9                	mov    %ebx,%ecx
  101093:	c1 ee 16             	shr    $0x16,%esi
  101096:	8b 04 b5 00 20 1d 00 	mov    0x1d2000(,%esi,4),%eax
  10109d:	c1 e9 0c             	shr    $0xc,%ecx
  1010a0:	81 e1 ff 03 00 00    	and    $0x3ff,%ecx
  1010a6:	a8 02                	test   $0x2,%al
  1010a8:	74 38                	je     1010e2 <MapAPage+0x62>
  1010aa:	8b 54 24 34          	mov    0x34(%esp),%edx
  1010ae:	25 00 f0 ff ff       	and    $0xfffff000,%eax
  1010b3:	8b 74 24 38          	mov    0x38(%esp),%esi
  1010b7:	81 e2 00 f0 ff ff    	and    $0xfffff000,%edx
  1010bd:	81 e6 ff 0f 00 00    	and    $0xfff,%esi
  1010c3:	09 f2                	or     %esi,%edx
  1010c5:	83 ca 07             	or     $0x7,%edx
  1010c8:	f7 c3 ff 0f 00 00    	test   $0xfff,%ebx
  1010ce:	89 14 88             	mov    %edx,(%eax,%ecx,4)
  1010d1:	75 76                	jne    101149 <MapAPage+0xc9>
  1010d3:	0f 01 3b             	invlpg (%ebx)
  1010d6:	8b 5c 24 20          	mov    0x20(%esp),%ebx
  1010da:	8b 74 24 24          	mov    0x24(%esp),%esi
  1010de:	83 c4 2c             	add    $0x2c,%esp
  1010e1:	c3                   	ret
  1010e2:	c7 04 24 00 10 00 00 	movl   $0x1000,(%esp)
  1010e9:	89 7c 24 28          	mov    %edi,0x28(%esp)
  1010ed:	89 4c 24 1c          	mov    %ecx,0x1c(%esp)
  1010f1:	e8 da 03 00 00       	call   1014d0 <DumbPMMAlloc>
  1010f6:	8b 4c 24 1c          	mov    0x1c(%esp),%ecx
  1010fa:	8d 90 00 10 00 00    	lea    0x1000(%eax),%edx
  101100:	89 c7                	mov    %eax,%edi
  101102:	eb 1c                	jmp    101120 <MapAPage+0xa0>
  101104:	8d 74 26 00          	lea    0x0(%esi,%eiz,1),%esi
  101108:	2e 8d b4 26 00 00 00 	lea    %cs:0x0(%esi,%eiz,1),%esi
  10110f:	00 
  101110:	2e 8d b4 26 00 00 00 	lea    %cs:0x0(%esi,%eiz,1),%esi
  101117:	00 
  101118:	2e 8d b4 26 00 00 00 	lea    %cs:0x0(%esi,%eiz,1),%esi
  10111f:	00 
  101120:	c7 00 00 00 00 00    	movl   $0x0,(%eax)
  101126:	83 c0 08             	add    $0x8,%eax
  101129:	c7 40 fc 00 00 00 00 	movl   $0x0,-0x4(%eax)
  101130:	39 c2                	cmp    %eax,%edx
  101132:	75 ec                	jne    101120 <MapAPage+0xa0>
  101134:	89 f8                	mov    %edi,%eax
  101136:	8b 7c 24 28          	mov    0x28(%esp),%edi
  10113a:	83 c8 07             	or     $0x7,%eax
  10113d:	89 04 b5 00 20 1d 00 	mov    %eax,0x1d2000(,%esi,4)
  101144:	e9 61 ff ff ff       	jmp    1010aa <MapAPage+0x2a>
  101149:	c7 04 24 6c 4c 10 00 	movl   $0x104c6c,(%esp)
  101150:	b8 70 4c 10 00       	mov    $0x104c70,%eax
  101155:	89 44 24 04          	mov    %eax,0x4(%esp)
  101159:	e8 c2 fb ff ff       	call   100d20 <LogF>
  10115e:	e9 70 ff ff ff       	jmp    1010d3 <MapAPage+0x53>
  101163:	2e 8d 74 26 00       	lea    %cs:0x0(%esi,%eiz,1),%esi
  101168:	2e 8d b4 26 00 00 00 	lea    %cs:0x0(%esi,%eiz,1),%esi
  10116f:	00 

00101170 <PagingInit>:
  101170:	57                   	push   %edi
  101171:	31 c0                	xor    %eax,%eax
  101173:	56                   	push   %esi
  101174:	53                   	push   %ebx
  101175:	83 ec 10             	sub    $0x10,%esp
  101178:	2e 8d b4 26 00 00 00 	lea    %cs:0x0(%esi,%eiz,1),%esi
  10117f:	00 
  101180:	31 c9                	xor    %ecx,%ecx
  101182:	31 db                	xor    %ebx,%ebx
  101184:	89 0c 85 00 20 1d 00 	mov    %ecx,0x1d2000(,%eax,4)
  10118b:	89 1c 85 04 20 1d 00 	mov    %ebx,0x1d2004(,%eax,4)
  101192:	83 c0 02             	add    $0x2,%eax
  101195:	3d 00 04 00 00       	cmp    $0x400,%eax
  10119a:	75 e4                	jne    101180 <PagingInit+0x10>
  10119c:	31 ff                	xor    %edi,%edi
  10119e:	c7 04 24 00 10 00 00 	movl   $0x1000,(%esp)
  1011a5:	e8 26 03 00 00       	call   1014d0 <DumbPMMAlloc>
  1011aa:	89 fa                	mov    %edi,%edx
  1011ac:	c1 e2 18             	shl    $0x18,%edx
  1011af:	8d 98 00 10 00 00    	lea    0x1000(%eax),%ebx
  1011b5:	89 c6                	mov    %eax,%esi
  1011b7:	90                   	nop
  1011b8:	2e 8d b4 26 00 00 00 	lea    %cs:0x0(%esi,%eiz,1),%esi
  1011bf:	00 
  1011c0:	89 d1                	mov    %edx,%ecx
  1011c2:	83 c0 04             	add    $0x4,%eax
  1011c5:	83 c9 07             	or     $0x7,%ecx
  1011c8:	81 c2 00 10 00 00    	add    $0x1000,%edx
  1011ce:	89 48 fc             	mov    %ecx,-0x4(%eax)
  1011d1:	39 d8                	cmp    %ebx,%eax
  1011d3:	75 eb                	jne    1011c0 <PagingInit+0x50>
  1011d5:	83 ce 07             	or     $0x7,%esi
  1011d8:	89 34 bd 00 20 1d 00 	mov    %esi,0x1d2000(,%edi,4)
  1011df:	47                   	inc    %edi
  1011e0:	83 ff 40             	cmp    $0x40,%edi
  1011e3:	75 b9                	jne    10119e <PagingInit+0x2e>
  1011e5:	b8 00 20 1d 00       	mov    $0x1d2000,%eax
  1011ea:	0f 22 d8             	mov    %eax,%cr3
  1011ed:	c7 04 24 00 00 a0 3f 	movl   $0x3fa00000,(%esp)
  1011f4:	b8 07 00 00 00       	mov    $0x7,%eax
  1011f9:	ba 00 00 a0 3f       	mov    $0x3fa00000,%edx
  1011fe:	89 44 24 08          	mov    %eax,0x8(%esp)
  101202:	89 54 24 04          	mov    %edx,0x4(%esp)
  101206:	e8 75 fe ff ff       	call   101080 <MapAPage>
  10120b:	0f 20 d8             	mov    %cr3,%eax
  10120e:	0f 22 d8             	mov    %eax,%cr3
  101211:	0f 20 c0             	mov    %cr0,%eax
  101214:	0d 00 00 00 80       	or     $0x80000000,%eax
  101219:	0f 22 c0             	mov    %eax,%cr0
  10121c:	83 c4 10             	add    $0x10,%esp
  10121f:	5b                   	pop    %ebx
  101220:	5e                   	pop    %esi
  101221:	5f                   	pop    %edi
  101222:	c3                   	ret
  101223:	66 90                	xchg   %ax,%ax
  101225:	66 90                	xchg   %ax,%ax
  101227:	66 90                	xchg   %ax,%ax
  101229:	66 90                	xchg   %ax,%ax
  10122b:	66 90                	xchg   %ax,%ax
  10122d:	66 90                	xchg   %ax,%ax
  10122f:	90                   	nop

00101230 <FAULT>:
  101230:	83 ec 1c             	sub    $0x1c,%esp
  101233:	c7 04 24 a0 4c 10 00 	movl   $0x104ca0,(%esp)
  10123a:	8b 44 24 20          	mov    0x20(%esp),%eax
  10123e:	89 44 24 08          	mov    %eax,0x8(%esp)
  101242:	b8 87 4c 10 00       	mov    $0x104c87,%eax
  101247:	89 44 24 04          	mov    %eax,0x4(%esp)
  10124b:	e8 d0 fa ff ff       	call   100d20 <LogF>
  101250:	eb fe                	jmp    101250 <FAULT+0x20>
  101252:	83 c4 1c             	add    $0x1c,%esp
  101255:	c3                   	ret
  101256:	66 90                	xchg   %ax,%ax
  101258:	66 90                	xchg   %ax,%ax
  10125a:	66 90                	xchg   %ax,%ax
  10125c:	66 90                	xchg   %ax,%ax
  10125e:	66 90                	xchg   %ax,%ax

00101260 <Remap>:
  101260:	b0 11                	mov    $0x11,%al
  101262:	e6 20                	out    %al,$0x20
  101264:	e6 a0                	out    %al,$0xa0
  101266:	31 c0                	xor    %eax,%eax
  101268:	e6 80                	out    %al,$0x80
  10126a:	0f b6 44 24 04       	movzbl 0x4(%esp),%eax
  10126f:	e6 21                	out    %al,$0x21
  101271:	0f b6 44 24 08       	movzbl 0x8(%esp),%eax
  101276:	e6 a1                	out    %al,$0xa1
  101278:	31 c0                	xor    %eax,%eax
  10127a:	e6 80                	out    %al,$0x80
  10127c:	b0 04                	mov    $0x4,%al
  10127e:	e6 21                	out    %al,$0x21
  101280:	b0 02                	mov    $0x2,%al
  101282:	e6 a1                	out    %al,$0xa1
  101284:	31 c0                	xor    %eax,%eax
  101286:	e6 80                	out    %al,$0x80
  101288:	b0 01                	mov    $0x1,%al
  10128a:	e6 21                	out    %al,$0x21
  10128c:	e6 a1                	out    %al,$0xa1
  10128e:	31 c0                	xor    %eax,%eax
  101290:	e6 80                	out    %al,$0x80
  101292:	b0 ff                	mov    $0xff,%al
  101294:	e6 21                	out    %al,$0x21
  101296:	e6 a1                	out    %al,$0xa1
  101298:	c3                   	ret
  101299:	8d b4 26 00 00 00 00 	lea    0x0(%esi,%eiz,1),%esi

001012a0 <PICInit>:
  1012a0:	b0 11                	mov    $0x11,%al
  1012a2:	e6 20                	out    %al,$0x20
  1012a4:	e6 a0                	out    %al,$0xa0
  1012a6:	31 c0                	xor    %eax,%eax
  1012a8:	e6 80                	out    %al,$0x80
  1012aa:	b0 20                	mov    $0x20,%al
  1012ac:	e6 21                	out    %al,$0x21
  1012ae:	b0 28                	mov    $0x28,%al
  1012b0:	e6 a1                	out    %al,$0xa1
  1012b2:	31 c0                	xor    %eax,%eax
  1012b4:	e6 80                	out    %al,$0x80
  1012b6:	b0 04                	mov    $0x4,%al
  1012b8:	e6 21                	out    %al,$0x21
  1012ba:	b0 02                	mov    $0x2,%al
  1012bc:	e6 a1                	out    %al,$0xa1
  1012be:	31 c0                	xor    %eax,%eax
  1012c0:	e6 80                	out    %al,$0x80
  1012c2:	b0 01                	mov    $0x1,%al
  1012c4:	e6 21                	out    %al,$0x21
  1012c6:	e6 a1                	out    %al,$0xa1
  1012c8:	31 c0                	xor    %eax,%eax
  1012ca:	e6 80                	out    %al,$0x80
  1012cc:	b0 ff                	mov    $0xff,%al
  1012ce:	e6 21                	out    %al,$0x21
  1012d0:	e6 a1                	out    %al,$0xa1
  1012d2:	e4 21                	in     $0x21,%al
  1012d4:	24 fe                	and    $0xfe,%al
  1012d6:	e6 21                	out    %al,$0x21
  1012d8:	e4 21                	in     $0x21,%al
  1012da:	24 ef                	and    $0xef,%al
  1012dc:	e6 21                	out    %al,$0x21
  1012de:	c3                   	ret
  1012df:	90                   	nop

001012e0 <PICUnmask>:
  1012e0:	53                   	push   %ebx
  1012e1:	0f b6 4c 24 08       	movzbl 0x8(%esp),%ecx
  1012e6:	80 f9 08             	cmp    $0x8,%cl
  1012e9:	19 d2                	sbb    %edx,%edx
  1012eb:	83 e2 80             	and    $0xffffff80,%edx
  1012ee:	81 c2 a1 00 00 00    	add    $0xa1,%edx
  1012f4:	ec                   	in     (%dx),%al
  1012f5:	b3 fe                	mov    $0xfe,%bl
  1012f7:	d2 c3                	rol    %cl,%bl
  1012f9:	20 d8                	and    %bl,%al
  1012fb:	ee                   	out    %al,(%dx)
  1012fc:	5b                   	pop    %ebx
  1012fd:	c3                   	ret
  1012fe:	66 90                	xchg   %ax,%ax

00101300 <PICMask>:
  101300:	53                   	push   %ebx
  101301:	0f b6 4c 24 08       	movzbl 0x8(%esp),%ecx
  101306:	80 f9 08             	cmp    $0x8,%cl
  101309:	19 d2                	sbb    %edx,%edx
  10130b:	83 e2 80             	and    $0xffffff80,%edx
  10130e:	81 c2 a1 00 00 00    	add    $0xa1,%edx
  101314:	ec                   	in     (%dx),%al
  101315:	bb 01 00 00 00       	mov    $0x1,%ebx
  10131a:	80 e1 07             	and    $0x7,%cl
  10131d:	d3 e3                	shl    %cl,%ebx
  10131f:	08 d8                	or     %bl,%al
  101321:	ee                   	out    %al,(%dx)
  101322:	5b                   	pop    %ebx
  101323:	c3                   	ret
  101324:	8d 74 26 00          	lea    0x0(%esi,%eiz,1),%esi
  101328:	2e 8d b4 26 00 00 00 	lea    %cs:0x0(%esi,%eiz,1),%esi
  10132f:	00 

00101330 <EOI>:
  101330:	80 7c 24 04 07       	cmpb   $0x7,0x4(%esp)
  101335:	76 04                	jbe    10133b <EOI+0xb>
  101337:	b0 20                	mov    $0x20,%al
  101339:	e6 a0                	out    %al,$0xa0
  10133b:	b0 20                	mov    $0x20,%al
  10133d:	e6 20                	out    %al,$0x20
  10133f:	c3                   	ret

00101340 <DumbPMMInit>:
  101340:	83 ec 4c             	sub    $0x4c,%esp
  101343:	89 5c 24 3c          	mov    %ebx,0x3c(%esp)
  101347:	8b 5c 24 50          	mov    0x50(%esp),%ebx
  10134b:	f6 03 40             	testb  $0x40,(%ebx)
  10134e:	0f 84 54 01 00 00    	je     1014a8 <DumbPMMInit+0x168>
  101354:	c7 04 24 38 4c 10 00 	movl   $0x104c38,(%esp)
  10135b:	ba f4 4c 10 00       	mov    $0x104cf4,%edx
  101360:	89 54 24 04          	mov    %edx,0x4(%esp)
  101364:	89 6c 24 48          	mov    %ebp,0x48(%esp)
  101368:	e8 b3 f9 ff ff       	call   100d20 <LogF>
  10136d:	8b 6b 30             	mov    0x30(%ebx),%ebp
  101370:	8b 43 2c             	mov    0x2c(%ebx),%eax
  101373:	01 e8                	add    %ebp,%eax
  101375:	89 44 24 2c          	mov    %eax,0x2c(%esp)
  101379:	39 c5                	cmp    %eax,%ebp
  10137b:	0f 83 47 01 00 00    	jae    1014c8 <DumbPMMInit+0x188>
  101381:	89 74 24 40          	mov    %esi,0x40(%esp)
  101385:	89 7c 24 44          	mov    %edi,0x44(%esp)
  101389:	e9 90 00 00 00       	jmp    10141e <DumbPMMInit+0xde>
  10138e:	66 90                	xchg   %ax,%ax
  101390:	89 c1                	mov    %eax,%ecx
  101392:	81 f1 00 00 10 00    	xor    $0x100000,%ecx
  101398:	09 d1                	or     %edx,%ecx
  10139a:	0f 84 c0 00 00 00    	je     101460 <DumbPMMInit+0x120>
  1013a0:	8b 5c 24 20          	mov    0x20(%esp),%ebx
  1013a4:	8b 74 24 24          	mov    0x24(%esp),%esi
  1013a8:	89 d9                	mov    %ebx,%ecx
  1013aa:	81 f1 00 fc 09 00    	xor    $0x9fc00,%ecx
  1013b0:	09 f1                	or     %esi,%ecx
  1013b2:	0f 84 d0 00 00 00    	je     101488 <DumbPMMInit+0x148>
  1013b8:	89 d9                	mov    %ebx,%ecx
  1013ba:	81 f1 00 00 0a 00    	xor    $0xa0000,%ecx
  1013c0:	09 f1                	or     %esi,%ecx
  1013c2:	0f 84 d0 00 00 00    	je     101498 <DumbPMMInit+0x158>
  1013c8:	8b 75 14             	mov    0x14(%ebp),%esi
  1013cb:	b9 d6 4c 10 00       	mov    $0x104cd6,%ecx
  1013d0:	8d 5e ff             	lea    -0x1(%esi),%ebx
  1013d3:	83 fb 04             	cmp    $0x4,%ebx
  1013d6:	77 08                	ja     1013e0 <DumbPMMInit+0xa0>
  1013d8:	8b 0c 9d 24 49 10 00 	mov    0x104924(,%ebx,4),%ecx
  1013df:	90                   	nop
  1013e0:	89 44 24 08          	mov    %eax,0x8(%esp)
  1013e4:	8b 5c 24 20          	mov    0x20(%esp),%ebx
  1013e8:	b8 0b 4d 10 00       	mov    $0x104d0b,%eax
  1013ed:	89 44 24 04          	mov    %eax,0x4(%esp)
  1013f1:	8b 74 24 24          	mov    0x24(%esp),%esi
  1013f5:	89 4c 24 18          	mov    %ecx,0x18(%esp)
  1013f9:	89 54 24 0c          	mov    %edx,0xc(%esp)
  1013fd:	89 5c 24 10          	mov    %ebx,0x10(%esp)
  101401:	89 74 24 14          	mov    %esi,0x14(%esp)
  101405:	c7 04 24 38 4c 10 00 	movl   $0x104c38,(%esp)
  10140c:	e8 0f f9 ff ff       	call   100d20 <LogF>
  101411:	8b 45 00             	mov    0x0(%ebp),%eax
  101414:	8d 6c 05 04          	lea    0x4(%ebp,%eax,1),%ebp
  101418:	3b 6c 24 2c          	cmp    0x2c(%esp),%ebp
  10141c:	73 52                	jae    101470 <DumbPMMInit+0x130>
  10141e:	8b 45 04             	mov    0x4(%ebp),%eax
  101421:	8b 55 08             	mov    0x8(%ebp),%edx
  101424:	89 c6                	mov    %eax,%esi
  101426:	89 c1                	mov    %eax,%ecx
  101428:	03 75 0c             	add    0xc(%ebp),%esi
  10142b:	89 d7                	mov    %edx,%edi
  10142d:	89 d3                	mov    %edx,%ebx
  10142f:	13 7d 10             	adc    0x10(%ebp),%edi
  101432:	81 c1 00 00 04 00    	add    $0x40000,%ecx
  101438:	89 74 24 20          	mov    %esi,0x20(%esp)
  10143c:	83 d3 ff             	adc    $0xffffffff,%ebx
  10143f:	89 7c 24 24          	mov    %edi,0x24(%esp)
  101443:	bf ff ff 03 00       	mov    $0x3ffff,%edi
  101448:	39 cf                	cmp    %ecx,%edi
  10144a:	bf 00 00 00 00       	mov    $0x0,%edi
  10144f:	19 df                	sbb    %ebx,%edi
  101451:	0f 82 39 ff ff ff    	jb     101390 <DumbPMMInit+0x50>
  101457:	b9 a6 4c 10 00       	mov    $0x104ca6,%ecx
  10145c:	eb 82                	jmp    1013e0 <DumbPMMInit+0xa0>
  10145e:	66 90                	xchg   %ax,%ax
  101460:	b9 b4 4c 10 00       	mov    $0x104cb4,%ecx
  101465:	e9 76 ff ff ff       	jmp    1013e0 <DumbPMMInit+0xa0>
  10146a:	8d b6 00 00 00 00    	lea    0x0(%esi),%esi
  101470:	8b 74 24 40          	mov    0x40(%esp),%esi
  101474:	8b 7c 24 44          	mov    0x44(%esp),%edi
  101478:	8b 6c 24 48          	mov    0x48(%esp),%ebp
  10147c:	8b 5c 24 3c          	mov    0x3c(%esp),%ebx
  101480:	83 c4 4c             	add    $0x4c,%esp
  101483:	c3                   	ret
  101484:	8d 74 26 00          	lea    0x0(%esi,%eiz,1),%esi
  101488:	b9 bf 4c 10 00       	mov    $0x104cbf,%ecx
  10148d:	e9 4e ff ff ff       	jmp    1013e0 <DumbPMMInit+0xa0>
  101492:	8d b6 00 00 00 00    	lea    0x0(%esi),%esi
  101498:	b9 cc 4c 10 00       	mov    $0x104ccc,%ecx
  10149d:	e9 3e ff ff ff       	jmp    1013e0 <DumbPMMInit+0xa0>
  1014a2:	8d b6 00 00 00 00    	lea    0x0(%esi),%esi
  1014a8:	c7 04 24 38 4c 10 00 	movl   $0x104c38,(%esp)
  1014af:	b9 de 4c 10 00       	mov    $0x104cde,%ecx
  1014b4:	89 4c 24 04          	mov    %ecx,0x4(%esp)
  1014b8:	e8 63 f8 ff ff       	call   100d20 <LogF>
  1014bd:	8b 5c 24 3c          	mov    0x3c(%esp),%ebx
  1014c1:	83 c4 4c             	add    $0x4c,%esp
  1014c4:	c3                   	ret
  1014c5:	8d 76 00             	lea    0x0(%esi),%esi
  1014c8:	8b 6c 24 48          	mov    0x48(%esp),%ebp
  1014cc:	eb ae                	jmp    10147c <DumbPMMInit+0x13c>
  1014ce:	66 90                	xchg   %ax,%ax

001014d0 <DumbPMMAlloc>:
  1014d0:	83 ec 08             	sub    $0x8,%esp
  1014d3:	89 74 24 04          	mov    %esi,0x4(%esp)
  1014d7:	31 f6                	xor    %esi,%esi
  1014d9:	0f b6 96 00 30 1d 00 	movzbl 0x1d3000(%esi),%edx
  1014e0:	80 fa ff             	cmp    $0xff,%dl
  1014e3:	74 53                	je     101538 <DumbPMMAlloc+0x68>
  1014e5:	89 1c 24             	mov    %ebx,(%esp)
  1014e8:	89 d0                	mov    %edx,%eax
  1014ea:	b1 07                	mov    $0x7,%cl
  1014ec:	c1 e8 07             	shr    $0x7,%eax
  1014ef:	74 57                	je     101548 <DumbPMMAlloc+0x78>
  1014f1:	8d b4 26 00 00 00 00 	lea    0x0(%esi,%eiz,1),%esi
  1014f8:	2e 8d b4 26 00 00 00 	lea    %cs:0x0(%esi,%eiz,1),%esi
  1014ff:	00 
  101500:	fe c9                	dec    %cl
  101502:	89 d0                	mov    %edx,%eax
  101504:	d3 f8                	sar    %cl,%eax
  101506:	0f b6 d9             	movzbl %cl,%ebx
  101509:	a8 01                	test   $0x1,%al
  10150b:	75 f3                	jne    101500 <DumbPMMAlloc+0x30>
  10150d:	8d 04 f3             	lea    (%ebx,%esi,8),%eax
  101510:	ba 01 00 00 00       	mov    $0x1,%edx
  101515:	89 c1                	mov    %eax,%ecx
  101517:	89 c3                	mov    %eax,%ebx
  101519:	c1 eb 03             	shr    $0x3,%ebx
  10151c:	83 e1 07             	and    $0x7,%ecx
  10151f:	d3 e2                	shl    %cl,%edx
  101521:	08 93 00 30 1d 00    	or     %dl,0x1d3000(%ebx)
  101527:	c1 e0 0c             	shl    $0xc,%eax
  10152a:	8b 1c 24             	mov    (%esp),%ebx
  10152d:	8b 74 24 04          	mov    0x4(%esp),%esi
  101531:	83 c4 08             	add    $0x8,%esp
  101534:	c3                   	ret
  101535:	8d 76 00             	lea    0x0(%esi),%esi
  101538:	46                   	inc    %esi
  101539:	81 fe 00 00 10 00    	cmp    $0x100000,%esi
  10153f:	75 98                	jne    1014d9 <DumbPMMAlloc+0x9>
  101541:	31 c0                	xor    %eax,%eax
  101543:	eb e8                	jmp    10152d <DumbPMMAlloc+0x5d>
  101545:	8d 76 00             	lea    0x0(%esi),%esi
  101548:	bb 07 00 00 00       	mov    $0x7,%ebx
  10154d:	eb be                	jmp    10150d <DumbPMMAlloc+0x3d>
  10154f:	90                   	nop

00101550 <DumbPMMFree>:
  101550:	53                   	push   %ebx
  101551:	8b 4c 24 08          	mov    0x8(%esp),%ecx
  101555:	85 c9                	test   %ecx,%ecx
  101557:	74 20                	je     101579 <DumbPMMFree+0x29>
  101559:	89 cb                	mov    %ecx,%ebx
  10155b:	ba 01 00 00 00       	mov    $0x1,%edx
  101560:	c1 eb 0f             	shr    $0xf,%ebx
  101563:	0f b6 83 00 30 1d 00 	movzbl 0x1d3000(%ebx),%eax
  10156a:	c1 e9 0c             	shr    $0xc,%ecx
  10156d:	83 e1 07             	and    $0x7,%ecx
  101570:	d3 e2                	shl    %cl,%edx
  101572:	0f b6 c8             	movzbl %al,%ecx
  101575:	85 d1                	test   %edx,%ecx
  101577:	75 07                	jne    101580 <DumbPMMFree+0x30>
  101579:	5b                   	pop    %ebx
  10157a:	c3                   	ret
  10157b:	2e 8d 74 26 00       	lea    %cs:0x0(%esi,%eiz,1),%esi
  101580:	f6 d2                	not    %dl
  101582:	20 c2                	and    %al,%dl
  101584:	88 93 00 30 1d 00    	mov    %dl,0x1d3000(%ebx)
  10158a:	5b                   	pop    %ebx
  10158b:	c3                   	ret

Disassembly of section .ring3:

001c0000 <ring3>:
  1c0000:	68 0b 20 10 00       	push   $0x10200b
  1c0005:	68 04 20 10 00       	push   $0x102004
  1c000a:	e8 11 0d f4 ff       	call   100d20 <LogF>
Object dump(.data section):
 
NVKern:     file format elf32-i386

Contents of section .data:
 102000 00201000 4c455453 474f0048 6f6f7261  . ..LETSGO.Hoora
 102010 79212059 6f752065 6e746572 65642052  y! You entered R
 102020 696e6720 33210053 48414d45 00535345  ing 3!.SHAME.SSE
 102030 20697320 6e6f7420 73757070 6f727465   is not supporte
 102040 642c2073 6f207520 63616e27 74207275  d, so u can't ru
 102050 6e207365 63746f72 4c4c4d20 696e2045  n sectorLLM in E
 102060 6e764520 3a280000 00000000 00201000  nvE :(....... ..
 102070 00000000 00000000 00000000 00000000  ................
 102080 00000000 00000000 00000000 00000000  ................
 102090 00000000 00000000 00000000 00000000  ................
 1020a0 00000000 00000000 00000000 00000000  ................
 1020b0 00000000 00000000 00000000 00000000  ................
 1020c0 00000000 00000000 00000000 00000000  ................
 1020d0 00000000 00000000 00000000 00000000  ................
 1020e0 00000000 00000000 00000000 00000000  ................
 1020f0 00000000 00000000 00000000 00000000  ................
 102100 00000000 00000000 00000000 00000000  ................
 102110 00000000 00000000 00000000 00000000  ................
 102120 00000000 00000000 00000000 00000000  ................
 102130 00000000 00000000 00000000 00000000  ................
 102140 00000000 00000000 00000000 00000000  ................
 102150 00000000 00000000 00000000 00000000  ................
 102160 00000000 00000000 00000000 00000000  ................
 102170 00000000 00000000 00000000 00000000  ................
 102180 00000000 00000000 00000000 00000000  ................
 102190 00000000 00000000 00000000 00000000  ................
 1021a0 00000000 00000000 00000000 00000000  ................
 1021b0 00000000 00000000 00000000 00000000  ................
 1021c0 00000000 00000000 00000000 00000000  ................
 1021d0 00000000 00000000 00000000 00000000  ................
 1021e0 00000000 00000000 00000000 00000000  ................
 1021f0 00000000 00000000 00000000 00000000  ................
 102200 00000000 00000000 00000000 00000000  ................
 102210 00000000 00000000 00000000 00000000  ................
 102220 00000000 00000000 00000000 00000000  ................
 102230 00000000 00000000 00000000 00000000  ................
 102240 00000000 00000000 00000000 00000000  ................
 102250 00000000 00000000 00000000 00000000  ................
 102260 00000000 00000000 00000000 00000000  ................
 102270 00000000 00000000 00000000 00000000  ................
 102280 00000000 00000000 00000000 00000000  ................
 102290 00000000 00000000 00000000 00000000  ................
 1022a0 00000000 00000000 00000000 00000000  ................
 1022b0 00000000 00000000 00000000 00000000  ................
 1022c0 00000000 00000000 00000000 00000000  ................
 1022d0 00000000 00000000 00000000 00000000  ................
 1022e0 00000000 00000000 00000000 00000000  ................
 1022f0 00000000 00000000 00000000 00000000  ................
 102300 00000000 00000000 00000000 00000000  ................
 102310 00000000 00000000 00000000 00000000  ................
 102320 00000000 00000000 00000000 00000000  ................
 102330 00000000 00000000 00000000 00000000  ................
 102340 00000000 00000000 00000000 00000000  ................
 102350 00000000 00000000 00000000 00000000  ................
 102360 00000000 00000000 00000000 00000000  ................
 102370 00000000 00000000 00000000 00000000  ................
 102380 00000000 00000000 00000000 00000000  ................
 102390 00000000 00000000 00000000 00000000  ................
 1023a0 00000000 00000000 00000000 00000000  ................
 1023b0 00000000 00000000 00000000 00000000  ................
 1023c0 00000000 00000000 00000000 00000000  ................
 1023d0 00000000 00000000 00000000 00000000  ................
 1023e0 00000000 00000000 00000000 00000000  ................
 1023f0 00000000 00000000 00000000 00000000  ................
 102400 00000000 00000000 00000000 00000000  ................
 102410 00000000 00000000 00000000 00000000  ................
 102420 00000000 00000000 00000000 00000000  ................
 102430 00000000 00000000 00000000 00000000  ................
 102440 00000000 00000000 00000000 00000000  ................
 102450 00000000 00000000 00000000 00000000  ................
 102460 00000000 00000000 00000000 00000000  ................
 102470 00000000 00000000 00000000 00000000  ................
 102480 00000000 00000000 00000000 00000000  ................
 102490 00000000 00000000 00000000 00000000  ................
 1024a0 00000000 00000000 00000000 00000000  ................
 1024b0 00000000 00000000 00000000 00000000  ................
 1024c0 00000000 00000000 00000000 00000000  ................
 1024d0 00000000 00000000 00000000 00000000  ................
 1024e0 00000000 00000000 00000000 00000000  ................
 1024f0 00000000 00000000 00000000 00000000  ................
 102500 00000000 00000000 00000000 00000000  ................
 102510 00000000 00000000 00000000 00000000  ................
 102520 00000000 00000000 00000000 00000000  ................
 102530 00000000 00000000 00000000 00000000  ................
 102540 00000000 00000000 00000000 00000000  ................
 102550 00000000 00000000 00000000 00000000  ................
 102560 00000000 00000000 00000000 00000000  ................
 102570 00000000 00000000 00000000 00000000  ................
 102580 00000000 00000000 00000000 00000000  ................
 102590 00000000 00000000 00000000 00000000  ................
 1025a0 00000000 00000000 00000000 00000000  ................
 1025b0 00000000 00000000 00000000 00000000  ................
 1025c0 00000000 00000000 00000000 00000000  ................
 1025d0 00000000 00000000 00000000 00000000  ................
 1025e0 00000000 00000000 00000000 00000000  ................
 1025f0 00000000 00000000 00000000 00000000  ................
 102600 00000000 00000000 00000000 00000000  ................
 102610 00000000 00000000 00000000 00000000  ................
 102620 00000000 00000000 00000000 00000000  ................
 102630 00000000 00000000 00000000 00000000  ................
 102640 00000000 00000000 00000000 00000000  ................
 102650 00000000 00000000 00000000 00000000  ................
 102660 00000000 00000000 00000000 00000000  ................
 102670 00000000 00000000 00000000 00000000  ................
 102680 00000000 00000000 00000000 00000000  ................
 102690 00000000 00000000 00000000 00000000  ................
 1026a0 00000000 00000000 00000000 00000000  ................
 1026b0 00000000 00000000 00000000 00000000  ................
 1026c0 00000000 00000000 00000000 00000000  ................
 1026d0 00000000 00000000 00000000 00000000  ................
 1026e0 00000000 00000000 00000000 00000000  ................
 1026f0 00000000 00000000 00000000 00000000  ................
 102700 00000000 00000000 00000000 00000000  ................
 102710 00000000 00000000 00000000 00000000  ................
 102720 00000000 00000000 00000000 00000000  ................
 102730 00000000 00000000 00000000 00000000  ................
 102740 00000000 00000000 00000000 00000000  ................
 102750 00000000 00000000 00000000 00000000  ................
 102760 00000000 00000000 00000000 00000000  ................
 102770 00000000 00000000 00000000 00000000  ................
 102780 00000000 00000000 00000000 00000000  ................
 102790 00000000 00000000 00000000 00000000  ................
 1027a0 00000000 00000000 00000000 00000000  ................
 1027b0 00000000 00000000 00000000 00000000  ................
 1027c0 00000000 00000000 00000000 00000000  ................
 1027d0 00000000 00000000 00000000 00000000  ................
 1027e0 00000000 00000000 00000000 00000000  ................
 1027f0 00000000 00000000 00000000 00000000  ................
 102800 00000000 00000000 00000000 00000000  ................
 102810 00000000 00000000 00000000 00000000  ................
 102820 00000000 00000000 00000000 00000000  ................
 102830 00000000 00000000 00000000 00000000  ................
 102840 00000000 00000000 00000000 00000000  ................
 102850 00000000 00000000 00000000 00000000  ................
 102860 00000000 00000000 00000000 00000000  ................
 102870 00000000 00000000 00000000 00000000  ................
 102880 00000000 00000000 00000000 00000000  ................
 102890 00000000 00000000 00000000 00000000  ................
 1028a0 00000000 00000000 00000000 00000000  ................
 1028b0 00000000 00000000 00000000 00000000  ................
 1028c0 00000000 00000000 00000000 00000000  ................
 1028d0 00000000 00000000 00000000 00000000  ................
 1028e0 00000000 00000000 00000000 00000000  ................
 1028f0 00000000 00000000 00000000 00000000  ................
 102900 00000000 00000000 00000000 00000000  ................
 102910 00000000 00000000 00000000 00000000  ................
 102920 00000000 00000000 00000000 00000000  ................
 102930 00000000 00000000 00000000 00000000  ................
 102940 00000000 00000000 00000000 00000000  ................
 102950 00000000 00000000 00000000 00000000  ................
 102960 00000000 00000000 00000000 00000000  ................
 102970 00000000 00000000 00000000 00000000  ................
 102980 00000000 00000000 00000000 00000000  ................
 102990 00000000 00000000 00000000 00000000  ................
 1029a0 00000000 00000000 00000000 00000000  ................
 1029b0 00000000 00000000 00000000 00000000  ................
 1029c0 00000000 00000000 00000000 00000000  ................
 1029d0 00000000 00000000 00000000 00000000  ................
 1029e0 00000000 00000000 00000000 00000000  ................
 1029f0 00000000 00000000 00000000 00000000  ................
 102a00 00000000 00000000 00000000 00000000  ................
 102a10 00000000 00000000 00000000 00000000  ................
 102a20 00000000 00000000 00000000 00000000  ................
 102a30 00000000 00000000 00000000 00000000  ................
 102a40 00000000 00000000 00000000 00000000  ................
 102a50 00000000 00000000 00000000 00000000  ................
 102a60 00000000 00000000 00000000 00000000  ................
 102a70 00000000 00000000 00000000 00000000  ................
 102a80 00000000 00000000 00000000 00000000  ................
 102a90 00000000 00000000 00000000 00000000  ................
 102aa0 00000000 00000000 00000000 00000000  ................
 102ab0 00000000 00000000 00000000 00000000  ................
 102ac0 00000000 00000000 00000000 00000000  ................
 102ad0 00000000 00000000 00000000 00000000  ................
 102ae0 00000000 00000000 00000000 00000000  ................
 102af0 00000000 00000000 00000000 00000000  ................
 102b00 00000000 00000000 00000000 00000000  ................
 102b10 00000000 00000000 00000000 00000000  ................
 102b20 00000000 00000000 00000000 00000000  ................
 102b30 00000000 00000000 00000000 00000000  ................
 102b40 00000000 00000000 00000000 00000000  ................
 102b50 00000000 00000000 00000000 00000000  ................
 102b60 00000000 00000000 00000000 00000000  ................
 102b70 00000000 00000000 00000000 00000000  ................
 102b80 00000000 00000000 00000000 00000000  ................
 102b90 00000000 00000000 00000000 00000000  ................
 102ba0 00000000 00000000 00000000 00000000  ................
 102bb0 00000000 00000000 00000000 00000000  ................
 102bc0 00000000 00000000 00000000 00000000  ................
 102bd0 00000000 00000000 00000000 00000000  ................
 102be0 00000000 00000000 00000000 00000000  ................
 102bf0 00000000 00000000 00000000 00000000  ................
 102c00 00000000 00000000 00000000 00000000  ................
 102c10 00000000 00000000 00000000 00000000  ................
 102c20 00000000 00000000 00000000 00000000  ................
 102c30 00000000 00000000 00000000 00000000  ................
 102c40 00000000 00000000 00000000 00000000  ................
 102c50 00000000 00000000 00000000 00000000  ................
 102c60 00000000 00000000 00000000 00000000  ................
 102c70 00000000 00000000 00000000 00000000  ................
 102c80 00000000 00000000 00000000 00000000  ................
 102c90 00000000 00000000 00000000 00000000  ................
 102ca0 00000000 00000000 00000000 00000000  ................
 102cb0 00000000 00000000 00000000 00000000  ................
 102cc0 00000000 00000000 00000000 00000000  ................
 102cd0 00000000 00000000 00000000 00000000  ................
 102ce0 00000000 00000000 00000000 00000000  ................
 102cf0 00000000 00000000 00000000 00000000  ................
 102d00 00000000 00000000 00000000 00000000  ................
 102d10 00000000 00000000 00000000 00000000  ................
 102d20 00000000 00000000 00000000 00000000  ................
 102d30 00000000 00000000 00000000 00000000  ................
 102d40 00000000 00000000 00000000 00000000  ................
 102d50 00000000 00000000 00000000 00000000  ................
 102d60 00000000 00000000 00000000 00000000  ................
 102d70 00000000 00000000 00000000 00000000  ................
 102d80 00000000 00000000 00000000 00000000  ................
 102d90 00000000 00000000 00000000 00000000  ................
 102da0 00000000 00000000 00000000 00000000  ................
 102db0 00000000 00000000 00000000 00000000  ................
 102dc0 00000000 00000000 00000000 00000000  ................
 102dd0 00000000 00000000 00000000 00000000  ................
 102de0 00000000 00000000 00000000 00000000  ................
 102df0 00000000 00000000 00000000 00000000  ................
 102e00 00000000 00000000 00000000 00000000  ................
 102e10 00000000 00000000 00000000 00000000  ................
 102e20 00000000 00000000 00000000 00000000  ................
 102e30 00000000 00000000 00000000 00000000  ................
 102e40 00000000 00000000 00000000 00000000  ................
 102e50 00000000 00000000 00000000 00000000  ................
 102e60 00000000 00000000 00000000 00000000  ................
 102e70 00000000 00000000 00000000 00000000  ................
 102e80 00000000 00000000 00000000 00000000  ................
 102e90 00000000 00000000 00000000 00000000  ................
 102ea0 00000000 00000000 00000000 00000000  ................
 102eb0 00000000 00000000 00000000 00000000  ................
 102ec0 00000000 00000000 00000000 00000000  ................
 102ed0 00000000 00000000 00000000 00000000  ................
 102ee0 00000000 00000000 00000000 00000000  ................
 102ef0 00000000 00000000 00000000 00000000  ................
 102f00 00000000 00000000 00000000 00000000  ................
 102f10 00000000 00000000 00000000 00000000  ................
 102f20 00000000 00000000 00000000 00000000  ................
 102f30 00000000 00000000 00000000 00000000  ................
 102f40 00000000 00000000 00000000 00000000  ................
 102f50 00000000 00000000 00000000 00000000  ................
 102f60 00000000 00000000 00000000 00000000  ................
 102f70 00000000 00000000 00000000 00000000  ................
 102f80 00000000 00000000 00000000 00000000  ................
 102f90 00000000 00000000 00000000 00000000  ................
 102fa0 00000000 00000000 00000000 00000000  ................
 102fb0 00000000 00000000 00000000 00000000  ................
 102fc0 00000000 00000000 00000000 00000000  ................
 102fd0 00000000 00000000 00000000 00000000  ................
 102fe0 00000000 00000000 00000000 00000000  ................
 102ff0 00000000 00000000 00000000 00000000  ................
 103000 00000000 00000000 00000000 00000000  ................
 103010 00000000 00000000 00000000 00000000  ................
 103020 00000000 00000000 00000000 00000000  ................
 103030 00000000 00000000 00000000 00000000  ................
 103040 00000000 00000000 00000000 00000000  ................
 103050 00000000 00000000 00000000 00000000  ................
 103060 00000000 00000000 00000000 00000000  ................
 103070 00000000 00000000 00000000 00000000  ................
 103080 00000000 00000000 00000000 00000000  ................
 103090 00000000 00000000 00000000 00000000  ................
 1030a0 00000000 00000000 00000000 00000000  ................
 1030b0 00000000 00000000 00000000 00000000  ................
 1030c0 00000000 00000000 00000000 00000000  ................
 1030d0 00000000 00000000 00000000 00000000  ................
 1030e0 00000000 00000000 00000000 00000000  ................
 1030f0 00000000 00000000 00000000 00000000  ................
 103100 00000000 00000000 00000000 00000000  ................
 103110 00000000 00000000 00000000 00000000  ................
 103120 00000000 00000000 00000000 00000000  ................
 103130 00000000 00000000 00000000 00000000  ................
 103140 00000000 00000000 00000000 00000000  ................
 103150 00000000 00000000 00000000 00000000  ................
 103160 00000000 00000000 00000000 00000000  ................
 103170 00000000 00000000 00000000 00000000  ................
 103180 00000000 00000000 00000000 00000000  ................
 103190 00000000 00000000 00000000 00000000  ................
 1031a0 00000000 00000000 00000000 00000000  ................
 1031b0 00000000 00000000 00000000 00000000  ................
 1031c0 00000000 00000000 00000000 00000000  ................
 1031d0 00000000 00000000 00000000 00000000  ................
 1031e0 00000000 00000000 00000000 00000000  ................
 1031f0 00000000 00000000 00000000 00000000  ................
 103200 00000000 00000000 00000000 00000000  ................
 103210 00000000 00000000 00000000 00000000  ................
 103220 00000000 00000000 00000000 00000000  ................
 103230 00000000 00000000 00000000 00000000  ................
 103240 00000000 00000000 00000000 00000000  ................
 103250 00000000 00000000 00000000 00000000  ................
 103260 00000000 00000000 00000000 00000000  ................
 103270 00000000 00000000 00000000 00000000  ................
 103280 00000000 00000000 00000000 00000000  ................
 103290 00000000 00000000 00000000 00000000  ................
 1032a0 00000000 00000000 00000000 00000000  ................
 1032b0 00000000 00000000 00000000 00000000  ................
 1032c0 00000000 00000000 00000000 00000000  ................
 1032d0 00000000 00000000 00000000 00000000  ................
 1032e0 00000000 00000000 00000000 00000000  ................
 1032f0 00000000 00000000 00000000 00000000  ................
 103300 00000000 00000000 00000000 00000000  ................
 103310 00000000 00000000 00000000 00000000  ................
 103320 00000000 00000000 00000000 00000000  ................
 103330 00000000 00000000 00000000 00000000  ................
 103340 00000000 00000000 00000000 00000000  ................
 103350 00000000 00000000 00000000 00000000  ................
 103360 00000000 00000000 00000000 00000000  ................
 103370 00000000 00000000 00000000 00000000  ................
 103380 00000000 00000000 00000000 00000000  ................
 103390 00000000 00000000 00000000 00000000  ................
 1033a0 00000000 00000000 00000000 00000000  ................
 1033b0 00000000 00000000 00000000 00000000  ................
 1033c0 00000000 00000000 00000000 00000000  ................
 1033d0 00000000 00000000 00000000 00000000  ................
 1033e0 00000000 00000000 00000000 00000000  ................
 1033f0 00000000 00000000 00000000 00000000  ................
 103400 00000000 00000000 00000000 00000000  ................
 103410 00000000 00000000 00000000 00000000  ................
 103420 00000000 00000000 00000000 00000000  ................
 103430 00000000 00000000 00000000 00000000  ................
 103440 00000000 00000000 00000000 00000000  ................
 103450 00000000 00000000 00000000 00000000  ................
 103460 00000000 00000000 00000000 00000000  ................
 103470 00000000 00000000 00000000 00000000  ................
 103480 00000000 00000000 00000000 00000000  ................
 103490 00000000 00000000 00000000 00000000  ................
 1034a0 00000000 00000000 00000000 00000000  ................
 1034b0 00000000 00000000 00000000 00000000  ................
 1034c0 00000000 00000000 00000000 00000000  ................
 1034d0 00000000 00000000 00000000 00000000  ................
 1034e0 00000000 00000000 00000000 00000000  ................
 1034f0 00000000 00000000 00000000 00000000  ................
 103500 00000000 00000000 00000000 00000000  ................
 103510 00000000 00000000 00000000 00000000  ................
 103520 00000000 00000000 00000000 00000000  ................
 103530 00000000 00000000 00000000 00000000  ................
 103540 00000000 00000000 00000000 00000000  ................
 103550 00000000 00000000 00000000 00000000  ................
 103560 00000000 00000000 00000000 00000000  ................
 103570 00000000 00000000 00000000 00000000  ................
 103580 00000000 00000000 00000000 00000000  ................
 103590 00000000 00000000 00000000 00000000  ................
 1035a0 00000000 00000000 00000000 00000000  ................
 1035b0 00000000 00000000 00000000 00000000  ................
 1035c0 00000000 00000000 00000000 00000000  ................
 1035d0 00000000 00000000 00000000 00000000  ................
 1035e0 00000000 00000000 00000000 00000000  ................
 1035f0 00000000 00000000 00000000 00000000  ................
 103600 00000000 00000000 00000000 00000000  ................
 103610 00000000 00000000 00000000 00000000  ................
 103620 00000000 00000000 00000000 00000000  ................
 103630 00000000 00000000 00000000 00000000  ................
 103640 00000000 00000000 00000000 00000000  ................
 103650 00000000 00000000 00000000 00000000  ................
 103660 00000000 00000000 00000000 00000000  ................
 103670 00000000 00000000 00000000 00000000  ................
 103680 00000000 00000000 00000000 00000000  ................
 103690 00000000 00000000 00000000 00000000  ................
 1036a0 00000000 00000000 00000000 00000000  ................
 1036b0 00000000 00000000 00000000 00000000  ................
 1036c0 00000000 00000000 00000000 00000000  ................
 1036d0 00000000 00000000 00000000 00000000  ................
 1036e0 00000000 00000000 00000000 00000000  ................
 1036f0 00000000 00000000 00000000 00000000  ................
 103700 00000000 00000000 00000000 00000000  ................
 103710 00000000 00000000 00000000 00000000  ................
 103720 00000000 00000000 00000000 00000000  ................
 103730 00000000 00000000 00000000 00000000  ................
 103740 00000000 00000000 00000000 00000000  ................
 103750 00000000 00000000 00000000 00000000  ................
 103760 00000000 00000000 00000000 00000000  ................
 103770 00000000 00000000 00000000 00000000  ................
 103780 00000000 00000000 00000000 00000000  ................
 103790 00000000 00000000 00000000 00000000  ................
 1037a0 00000000 00000000 00000000 00000000  ................
 1037b0 00000000 00000000 00000000 00000000  ................
 1037c0 00000000 00000000 00000000 00000000  ................
 1037d0 00000000 00000000 00000000 00000000  ................
 1037e0 00000000 00000000 00000000 00000000  ................
 1037f0 00000000 00000000 00000000 00000000  ................
 103800 00000000 00000000 00000000 00000000  ................
 103810 00000000 00000000 00000000 00000000  ................
 103820 00000000 00000000 00000000 00000000  ................
 103830 00000000 00000000 00000000 00000000  ................
 103840 00000000 00000000 00000000 00000000  ................
 103850 00000000 00000000 00000000 00000000  ................
 103860 00000000 00000000 00000000 00000000  ................
 103870 00000000 00000000 00000000 00000000  ................
 103880 00000000 00000000 00000000 00000000  ................
 103890 00000000 00000000 00000000 00000000  ................
 1038a0 00000000 00000000 00000000 00000000  ................
 1038b0 00000000 00000000 00000000 00000000  ................
 1038c0 00000000 00000000 00000000 00000000  ................
 1038d0 00000000 00000000 00000000 00000000  ................
 1038e0 00000000 00000000 00000000 00000000  ................
 1038f0 00000000 00000000 00000000 00000000  ................
 103900 00000000 00000000 00000000 00000000  ................
 103910 00000000 00000000 00000000 00000000  ................
 103920 00000000 00000000 00000000 00000000  ................
 103930 00000000 00000000 00000000 00000000  ................
 103940 00000000 00000000 00000000 00000000  ................
 103950 00000000 00000000 00000000 00000000  ................
 103960 00000000 00000000 00000000 00000000  ................
 103970 00000000 00000000 00000000 00000000  ................
 103980 00000000 00000000 00000000 00000000  ................
 103990 00000000 00000000 00000000 00000000  ................
 1039a0 00000000 00000000 00000000 00000000  ................
 1039b0 00000000 00000000 00000000 00000000  ................
 1039c0 00000000 00000000 00000000 00000000  ................
 1039d0 00000000 00000000 00000000 00000000  ................
 1039e0 00000000 00000000 00000000 00000000  ................
 1039f0 00000000 00000000 00000000 00000000  ................
 103a00 00000000 00000000 00000000 00000000  ................
 103a10 00000000 00000000 00000000 00000000  ................
 103a20 00000000 00000000 00000000 00000000  ................
 103a30 00000000 00000000 00000000 00000000  ................
 103a40 00000000 00000000 00000000 00000000  ................
 103a50 00000000 00000000 00000000 00000000  ................
 103a60 00000000 00000000 00000000 00000000  ................
 103a70 00000000 00000000 00000000 00000000  ................
 103a80 00000000 00000000 00000000 00000000  ................
 103a90 00000000 00000000 00000000 00000000  ................
 103aa0 00000000 00000000 00000000 00000000  ................
 103ab0 00000000 00000000 00000000 00000000  ................
 103ac0 00000000 00000000 00000000 00000000  ................
 103ad0 00000000 00000000 00000000 00000000  ................
 103ae0 00000000 00000000 00000000 00000000  ................
 103af0 00000000 00000000 00000000 00000000  ................
 103b00 00000000 00000000 00000000 00000000  ................
 103b10 00000000 00000000 00000000 00000000  ................
 103b20 00000000 00000000 00000000 00000000  ................
 103b30 00000000 00000000 00000000 00000000  ................
 103b40 00000000 00000000 00000000 00000000  ................
 103b50 00000000 00000000 00000000 00000000  ................
 103b60 00000000 00000000 00000000 00000000  ................
 103b70 00000000 00000000 00000000 00000000  ................
 103b80 00000000 00000000 00000000 00000000  ................
 103b90 00000000 00000000 00000000 00000000  ................
 103ba0 00000000 00000000 00000000 00000000  ................
 103bb0 00000000 00000000 00000000 00000000  ................
 103bc0 00000000 00000000 00000000 00000000  ................
 103bd0 00000000 00000000 00000000 00000000  ................
 103be0 00000000 00000000 00000000 00000000  ................
 103bf0 00000000 00000000 00000000 00000000  ................
 103c00 00000000 00000000 00000000 00000000  ................
 103c10 00000000 00000000 00000000 00000000  ................
 103c20 00000000 00000000 00000000 00000000  ................
 103c30 00000000 00000000 00000000 00000000  ................
 103c40 00000000 00000000 00000000 00000000  ................
 103c50 00000000 00000000 00000000 00000000  ................
 103c60 00000000 00000000 00000000 00000000  ................
 103c70 00000000 00000000 00000000 00000000  ................
 103c80 00000000 00000000 00000000 00000000  ................
 103c90 00000000 00000000 00000000 00000000  ................
 103ca0 00000000 00000000 00000000 00000000  ................
 103cb0 00000000 00000000 00000000 00000000  ................
 103cc0 00000000 00000000 00000000 00000000  ................
 103cd0 00000000 00000000 00000000 00000000  ................
 103ce0 00000000 00000000 00000000 00000000  ................
 103cf0 00000000 00000000 00000000 00000000  ................
 103d00 00000000 00000000 00000000 00000000  ................
 103d10 00000000 00000000 00000000 00000000  ................
 103d20 00000000 00000000 00000000 00000000  ................
 103d30 00000000 00000000 00000000 00000000  ................
 103d40 00000000 00000000 00000000 00000000  ................
 103d50 00000000 00000000 00000000 00000000  ................
 103d60 00000000 00000000 00000000 00000000  ................
 103d70 00000000 00000000 00000000 00000000  ................
 103d80 00000000 00000000 00000000 00000000  ................
 103d90 00000000 00000000 00000000 00000000  ................
 103da0 00000000 00000000 00000000 00000000  ................
 103db0 00000000 00000000 00000000 00000000  ................
 103dc0 00000000 00000000 00000000 00000000  ................
 103dd0 00000000 00000000 00000000 00000000  ................
 103de0 00000000 00000000 00000000 00000000  ................
 103df0 00000000 00000000 00000000 00000000  ................
 103e00 00000000 00000000 00000000 00000000  ................
 103e10 00000000 00000000 00000000 00000000  ................
 103e20 00000000 00000000 00000000 00000000  ................
 103e30 00000000 00000000 00000000 00000000  ................
 103e40 00000000 00000000 00000000 00000000  ................
 103e50 00000000 00000000 00000000 00000000  ................
 103e60 00000000 00000000 00000000 00000000  ................
 103e70 00000000 00000000 00000000 00000000  ................
 103e80 00000000 00000000 00000000 00000000  ................
 103e90 00000000 00000000 00000000 00000000  ................
 103ea0 00000000 00000000 00000000 00000000  ................
 103eb0 00000000 00000000 00000000 00000000  ................
 103ec0 00000000 00000000 00000000 00000000  ................
 103ed0 00000000 00000000 00000000 00000000  ................
 103ee0 00000000 00000000 00000000 00000000  ................
 103ef0 00000000 00000000 00000000 00000000  ................
 103f00 00000000 00000000 00000000 00000000  ................
 103f10 00000000 00000000 00000000 00000000  ................
 103f20 00000000 00000000 00000000 00000000  ................
 103f30 00000000 00000000 00000000 00000000  ................
 103f40 00000000 00000000 00000000 00000000  ................
 103f50 00000000 00000000 00000000 00000000  ................
 103f60 00000000 00000000 00000000 00000000  ................
 103f70 00000000 00000000 00000000 00000000  ................
 103f80 00000000 00000000 00000000 00000000  ................
 103f90 00000000 00000000 00000000 00000000  ................
 103fa0 00000000 00000000 00000000 00000000  ................
 103fb0 00000000 00000000 00000000 00000000  ................
 103fc0 00000000 00000000 00000000 00000000  ................
 103fd0 00000000 00000000 00000000 00000000  ................
 103fe0 00000000 00000000 00000000 00000000  ................
 103ff0 00000000 00000000 00000000 00000000  ................
 104000 00000000 00000000 00000000 00000000  ................
 104010 00000000 00000000 00000000 00000000  ................
 104020 00000000 00000000 00000000 00000000  ................
 104030 00000000 00000000 00000000 00000000  ................
 104040 00000000 00000000 00000000 00000000  ................
 104050 00000000 00000000 00000000 00000000  ................
 104060 00000000 00000000 00000000 00000000  ................
 104070 00000000 00000000 00000000 00000000  ................
 104080 00000000 00000000 00000000 00000000  ................
 104090 00000000 00000000 00000000 00000000  ................
 1040a0 00000000 00000000 00000000 00000000  ................
 1040b0 00000000 00000000 00000000 00000000  ................
 1040c0 00000000 00000000 00000000 00000000  ................
 1040d0 00000000 00000000 00000000 00000000  ................
 1040e0 00000000 00000000 00000000 00000000  ................
 1040f0 00000000 00000000 00000000 00000000  ................
 104100 00000000 00000000 00000000 00000000  ................
 104110 00000000 00000000 00000000 00000000  ................
 104120 00000000 00000000 00000000 00000000  ................
 104130 00000000 00000000 00000000 00000000  ................
 104140 00000000 00000000 00000000 00000000  ................
 104150 00000000 00000000 00000000 00000000  ................
 104160 00000000 00000000 00000000 00000000  ................
 104170 00000000 00000000 00000000 00000000  ................
 104180 00000000 00000000 00000000 00000000  ................
 104190 00000000 00000000 00000000 00000000  ................
 1041a0 00000000 00000000 00000000 00000000  ................
 1041b0 00000000 00000000 00000000 00000000  ................
 1041c0 00000000 00000000 00000000 00000000  ................
 1041d0 00000000 00000000 00000000 00000000  ................
 1041e0 00000000 00000000 00000000 00000000  ................
 1041f0 00000000 00000000 00000000 00000000  ................
 104200 00000000 00000000 00000000 00000000  ................
 104210 00000000 00000000 00000000 00000000  ................
 104220 00000000 00000000 00000000 00000000  ................
 104230 00000000 00000000 00000000 00000000  ................
 104240 00000000 00000000 00000000 00000000  ................
 104250 00000000 00000000 00000000 00000000  ................
 104260 00000000 00000000 00000000 00000000  ................
 104270 00000000 00000000 00000000 00000000  ................
 104280 00000000 00000000 00000000 00000000  ................
 104290 00000000 00000000 00000000 00000000  ................
 1042a0 00000000 00000000 00000000 00000000  ................
 1042b0 00000000 00000000 00000000 00000000  ................
 1042c0 00000000 00000000 00000000 00000000  ................
 1042d0 00000000 00000000 00000000 00000000  ................
 1042e0 00000000 00000000 00000000 00000000  ................
 1042f0 00000000 00000000 00000000 00000000  ................
 104300 00000000 00000000 00000000 00000000  ................
 104310 00000000 00000000 00000000 00000000  ................
 104320 00000000 00000000 00000000 00000000  ................
 104330 00000000 00000000 00000000 00000000  ................
 104340 00000000 00000000 00000000 00000000  ................
 104350 00000000 00000000 00000000 00000000  ................
 104360 00000000 00000000 00000000 00000000  ................
 104370 00000000 00000000 00000000 00000000  ................
 104380 00000000 00000000 00000000 00000000  ................
 104390 00000000 00000000 00000000 00000000  ................
 1043a0 00000000 00000000 00000000 00000000  ................
 1043b0 00000000 00000000 00000000 00000000  ................
 1043c0 00000000 00000000 00000000 00000000  ................
 1043d0 00000000 00000000 00000000 00000000  ................
 1043e0 00000000 00000000 00000000 00000000  ................
 1043f0 00000000 00000000 00000000 00000000  ................
 104400 00000000 00000000 00000000 00000000  ................
 104410 00000000 00000000 00000000 00000000  ................
 104420 00000000 00000000 00000000 00000000  ................
 104430 00000000 00000000 00000000 00000000  ................
 104440 00000000 00000000 00000000 00000000  ................
 104450 00000000 00000000 00000000 00000000  ................
 104460 00000000 00000000 00000000 00000000  ................
 104470 00000000 00000000 00000000 00000000  ................
 104480 00000000 00000000 00000000 00000000  ................
 104490 00000000 00000000 00000000 00000000  ................
 1044a0 00000000 00000000 00000000 00000000  ................
 1044b0 00000000 00000000 00000000 00000000  ................
 1044c0 00000000 00000000 00000000 00000000  ................
 1044d0 00000000 00000000 00000000 00000000  ................
 1044e0 00000000 00000000 00000000 00000000  ................
 1044f0 00000000 00000000 00000000 00000000  ................
 104500 00000000 00000000 00000000 00000000  ................
 104510 00000000 00000000 00000000 00000000  ................
 104520 00000000 00000000 00000000 00000000  ................
 104530 00000000 00000000 00000000 00000000  ................
 104540 00000000 00000000 00000000 00000000  ................
 104550 00000000 00000000 00000000 00000000  ................
 104560 00000000 00000000 00000000 00000000  ................
 104570 00000000 00000000 00000000 00000000  ................
 104580 00000000 00000000 00000000 00000000  ................
 104590 00000000 00000000 00000000 00000000  ................
 1045a0 00000000 00000000 00000000 00000000  ................
 1045b0 00000000 00000000 00000000 00000000  ................
 1045c0 00000000 00000000 00000000 00000000  ................
 1045d0 00000000 00000000 00000000 00000000  ................
 1045e0 00000000 00000000 00000000 00000000  ................
 1045f0 00000000 00000000 00000000 00000000  ................
 104600 00000000 00000000 00000000 00000000  ................
 104610 00000000 00000000 00000000 00000000  ................
 104620 00000000 00000000 00000000 00000000  ................
 104630 00000000 00000000 00000000 00000000  ................
 104640 00000000 00000000 00000000 00000000  ................
 104650 00000000 00000000 00000000 00000000  ................
 104660 00000000 00000000 00000000 00000000  ................
 104670 00000000 00000000 00000000 00000000  ................
 104680 00000000 00000000 00000000 00000000  ................
 104690 00000000 00000000 00000000 00000000  ................
 1046a0 00000000 00000000 00000000 00000000  ................
 1046b0 00000000 00000000 00000000 00000000  ................
 1046c0 00000000 00000000 00000000 00000000  ................
 1046d0 00000000 00000000 00000000 00000000  ................
 1046e0 00000000 00000000 00000000 00000000  ................
 1046f0 00000000 00000000 00000000 00000000  ................
 104700 00000000 00000000 00000000 00000000  ................
 104710 00000000 00000000 00000000 00000000  ................
 104720 00000000 00000000 00000000 00000000  ................
 104730 00000000 00000000 00000000 00000000  ................
 104740 00000000 00000000 00000000 00000000  ................
 104750 00000000 00000000 00000000 00000000  ................
 104760 00000000 00000000 00000000 00000000  ................
 104770 00000000 00000000 00000000 00000000  ................
 104780 00000000 00000000 00000000 00000000  ................
 104790 00000000 00000000 00000000 00000000  ................
 1047a0 00000000 00000000 00000000 00000000  ................
 1047b0 00000000 00000000 00000000 00000000  ................
 1047c0 00000000 00000000 00000000 00000000  ................
 1047d0 00000000 00000000 00000000 00000000  ................
 1047e0 00000000 00000000 00000000 00000000  ................
 1047f0 00000000 00000000 00000000 00000000  ................
 104800 dd491000 ef491000 014a1000 104a1000  .I...I...J...J..
 104810 1c4a1000 364a1000 4e4a1000 654a1000  .J..6J..NJ..eJ..
 104820 824a1000 9e4a1000 a84a1000 c44d1000  .J...J...J...M..
 104830 af4a1000 f04d1000 bc4a1000 c94a1000  .J...M...J...J..
 104840 144e1000 d34a1000 3c4e1000 5c4e1000  .N...J..<N..\N..
 104850 ea4a1000 f74a1000 044b1000 114b1000  .J...J...K...K..
 104860 1e4b1000 2b4b1000 384b1000 454b1000  .K..+K..8K..EK..
 104870 524b1000 604b1000 6e4b1000 7c4b1000  RK..`K..nK..|K..
